
_qsort.o:     file format elf32-littleriscv


Disassembly of section .text:

80000000 <boot>:
80000000:	ff010113          	addi	sp,sp,-16
80000004:	00112623          	sw	ra,12(sp)
80000008:	8000c2b7          	lui	t0,0x8000c
8000000c:	3422ac23          	sw	sp,856(t0) # 8000c358 <__stack_top+0xc001c358>
80000010:	8000c2b7          	lui	t0,0x8000c
80000014:	32c2a103          	lw	sp,812(t0) # 8000c32c <__stack_top+0xc001c32c>
80000018:	439020ef          	jal	ra,80002c50 <main>
8000001c:	8000c2b7          	lui	t0,0x8000c
80000020:	3582a103          	lw	sp,856(t0) # 8000c358 <__stack_top+0xc001c358>
80000024:	00c12083          	lw	ra,12(sp)
80000028:	01010113          	addi	sp,sp,16
8000002c:	00008067          	ret

80000030 <sort>:
80000030:	f3010113          	addi	sp,sp,-208
80000034:	00251513          	slli	a0,a0,0x2
80000038:	00810f13          	addi	t5,sp,8
8000003c:	40000fb7          	lui	t6,0x40000
80000040:	00058e93          	mv	t4,a1
80000044:	00a588b3          	add	a7,a1,a0
80000048:	000f0313          	mv	t1,t5
8000004c:	00458593          	addi	a1,a1,4
80000050:	02400e13          	li	t3,36
80000054:	ffff8f93          	addi	t6,t6,-1 # 3fffffff <__heap_size+0x2000ffff>
80000058:	40b887b3          	sub	a5,a7,a1
8000005c:	04fe4863          	blt	t3,a5,800000ac <sort+0x7c>
80000060:	ffc58613          	addi	a2,a1,-4
80000064:	0315f863          	bgeu	a1,a7,80000094 <sort+0x64>
80000068:	0005a683          	lw	a3,0(a1)
8000006c:	00058793          	mv	a5,a1
80000070:	0100006f          	j	80000080 <sort+0x50>
80000074:	00e7a023          	sw	a4,0(a5)
80000078:	ffc78793          	addi	a5,a5,-4
8000007c:	00f60663          	beq	a2,a5,80000088 <sort+0x58>
80000080:	ffc7a703          	lw	a4,-4(a5)
80000084:	fee6c8e3          	blt	a3,a4,80000074 <sort+0x44>
80000088:	00d7a023          	sw	a3,0(a5)
8000008c:	00458593          	addi	a1,a1,4
80000090:	fd15ece3          	bltu	a1,a7,80000068 <sort+0x38>
80000094:	11e30c63          	beq	t1,t5,800001ac <sort+0x17c>
80000098:	00032883          	lw	a7,0(t1)
8000009c:	ffc32583          	lw	a1,-4(t1)
800000a0:	ff830313          	addi	t1,t1,-8
800000a4:	40b887b3          	sub	a5,a7,a1
800000a8:	fafe5ce3          	bge	t3,a5,80000060 <sort+0x30>
800000ac:	41d587b3          	sub	a5,a1,t4
800000b0:	41d88733          	sub	a4,a7,t4
800000b4:	4027d793          	srai	a5,a5,0x2
800000b8:	40275713          	srai	a4,a4,0x2
800000bc:	00e78733          	add	a4,a5,a4
800000c0:	01f75793          	srli	a5,a4,0x1f
800000c4:	00e787b3          	add	a5,a5,a4
800000c8:	4017d793          	srai	a5,a5,0x1
800000cc:	01f787b3          	add	a5,a5,t6
800000d0:	00279793          	slli	a5,a5,0x2
800000d4:	0005a703          	lw	a4,0(a1)
800000d8:	00fe87b3          	add	a5,t4,a5
800000dc:	0007a683          	lw	a3,0(a5)
800000e0:	00e7a023          	sw	a4,0(a5)
800000e4:	ffc5a703          	lw	a4,-4(a1)
800000e8:	00d5a023          	sw	a3,0(a1)
800000ec:	ffc8a783          	lw	a5,-4(a7)
800000f0:	00e7da63          	bge	a5,a4,80000104 <sort+0xd4>
800000f4:	fef5ae23          	sw	a5,-4(a1)
800000f8:	fee8ae23          	sw	a4,-4(a7)
800000fc:	0005a683          	lw	a3,0(a1)
80000100:	00070793          	mv	a5,a4
80000104:	00d7d863          	bge	a5,a3,80000114 <sort+0xe4>
80000108:	00f5a023          	sw	a5,0(a1)
8000010c:	fed8ae23          	sw	a3,-4(a7)
80000110:	0005a683          	lw	a3,0(a1)
80000114:	ffc5a783          	lw	a5,-4(a1)
80000118:	00f6d863          	bge	a3,a5,80000128 <sort+0xf8>
8000011c:	fed5ae23          	sw	a3,-4(a1)
80000120:	00f5a023          	sw	a5,0(a1)
80000124:	00078693          	mv	a3,a5
80000128:	00458513          	addi	a0,a1,4
8000012c:	00088793          	mv	a5,a7
80000130:	00052803          	lw	a6,0(a0)
80000134:	00450513          	addi	a0,a0,4
80000138:	fed84ce3          	blt	a6,a3,80000130 <sort+0x100>
8000013c:	ff87a703          	lw	a4,-8(a5)
80000140:	00078613          	mv	a2,a5
80000144:	ffc78793          	addi	a5,a5,-4
80000148:	fee6cae3          	blt	a3,a4,8000013c <sort+0x10c>
8000014c:	00a7e863          	bltu	a5,a0,8000015c <sort+0x12c>
80000150:	fee52e23          	sw	a4,-4(a0)
80000154:	ff07ae23          	sw	a6,-4(a5)
80000158:	fd9ff06f          	j	80000130 <sort+0x100>
8000015c:	40a88833          	sub	a6,a7,a0
80000160:	00e5a023          	sw	a4,0(a1)
80000164:	40285713          	srai	a4,a6,0x2
80000168:	40b78833          	sub	a6,a5,a1
8000016c:	fed7ae23          	sw	a3,-4(a5)
80000170:	00170793          	addi	a5,a4,1
80000174:	40285713          	srai	a4,a6,0x2
80000178:	00830693          	addi	a3,t1,8
8000017c:	ff860613          	addi	a2,a2,-8
80000180:	00e7cc63          	blt	a5,a4,80000198 <sort+0x168>
80000184:	01132423          	sw	a7,8(t1)
80000188:	00a32223          	sw	a0,4(t1)
8000018c:	00060893          	mv	a7,a2
80000190:	00068313          	mv	t1,a3
80000194:	ec5ff06f          	j	80000058 <sort+0x28>
80000198:	00b32223          	sw	a1,4(t1)
8000019c:	00c32423          	sw	a2,8(t1)
800001a0:	00050593          	mv	a1,a0
800001a4:	00068313          	mv	t1,a3
800001a8:	eb1ff06f          	j	80000058 <sort+0x28>
800001ac:	0d010113          	addi	sp,sp,208
800001b0:	00008067          	ret

800001b4 <getchar>:
800001b4:	ff010113          	addi	sp,sp,-16
800001b8:	00112623          	sw	ra,12(sp)
800001bc:	589000ef          	jal	ra,80000f44 <inbyte>
800001c0:	00c12083          	lw	ra,12(sp)
800001c4:	01010113          	addi	sp,sp,16
800001c8:	00008067          	ret

800001cc <putchar>:
800001cc:	ff010113          	addi	sp,sp,-16
800001d0:	00812423          	sw	s0,8(sp)
800001d4:	00050413          	mv	s0,a0
800001d8:	0ff57513          	zext.b	a0,a0
800001dc:	00112623          	sw	ra,12(sp)
800001e0:	581000ef          	jal	ra,80000f60 <outbyte>
800001e4:	00c12083          	lw	ra,12(sp)
800001e8:	00040513          	mv	a0,s0
800001ec:	00812403          	lw	s0,8(sp)
800001f0:	01010113          	addi	sp,sp,16
800001f4:	00008067          	ret

800001f8 <fputs>:
800001f8:	8000c7b7          	lui	a5,0x8000c
800001fc:	3347a783          	lw	a5,820(a5) # 8000c334 <__stack_top+0xc001c334>
80000200:	ff010113          	addi	sp,sp,-16
80000204:	00112623          	sw	ra,12(sp)
80000208:	00812423          	sw	s0,8(sp)
8000020c:	06b78863          	beq	a5,a1,8000027c <fputs+0x84>
80000210:	8000c737          	lui	a4,0x8000c
80000214:	33872583          	lw	a1,824(a4) # 8000c338 <__stack_top+0xc001c338>
80000218:	04b78263          	beq	a5,a1,8000025c <fputs+0x64>
8000021c:	8000c537          	lui	a0,0x8000c
80000220:	00c50513          	addi	a0,a0,12 # 8000c00c <__stack_top+0xc001c00c>
80000224:	fd5ff0ef          	jal	ra,800001f8 <fputs>
80000228:	00a00513          	li	a0,10
8000022c:	535000ef          	jal	ra,80000f60 <outbyte>
80000230:	00a00513          	li	a0,10
80000234:	52d000ef          	jal	ra,80000f60 <outbyte>
80000238:	00a00513          	li	a0,10
8000023c:	525000ef          	jal	ra,80000f60 <outbyte>
80000240:	00a00513          	li	a0,10
80000244:	51d000ef          	jal	ra,80000f60 <outbyte>
80000248:	00c12083          	lw	ra,12(sp)
8000024c:	00812403          	lw	s0,8(sp)
80000250:	00a00513          	li	a0,10
80000254:	01010113          	addi	sp,sp,16
80000258:	00008067          	ret
8000025c:	8000c437          	lui	s0,0x8000c
80000260:	00a00513          	li	a0,10
80000264:	00c40413          	addi	s0,s0,12 # 8000c00c <__stack_top+0xc001c00c>
80000268:	00140413          	addi	s0,s0,1
8000026c:	4f5000ef          	jal	ra,80000f60 <outbyte>
80000270:	00044503          	lbu	a0,0(s0)
80000274:	fe051ae3          	bnez	a0,80000268 <fputs+0x70>
80000278:	fc1ff06f          	j	80000238 <fputs+0x40>
8000027c:	00050413          	mv	s0,a0
80000280:	00054503          	lbu	a0,0(a0)
80000284:	fa050ee3          	beqz	a0,80000240 <fputs+0x48>
80000288:	00140413          	addi	s0,s0,1
8000028c:	4d5000ef          	jal	ra,80000f60 <outbyte>
80000290:	00044503          	lbu	a0,0(s0)
80000294:	fe051ae3          	bnez	a0,80000288 <fputs+0x90>
80000298:	00a00513          	li	a0,10
8000029c:	4c5000ef          	jal	ra,80000f60 <outbyte>
800002a0:	00c12083          	lw	ra,12(sp)
800002a4:	00812403          	lw	s0,8(sp)
800002a8:	00a00513          	li	a0,10
800002ac:	01010113          	addi	sp,sp,16
800002b0:	00008067          	ret

800002b4 <fgets>:
800002b4:	8000c7b7          	lui	a5,0x8000c
800002b8:	3387a783          	lw	a5,824(a5) # 8000c338 <__stack_top+0xc001c338>
800002bc:	fe010113          	addi	sp,sp,-32
800002c0:	00112e23          	sw	ra,28(sp)
800002c4:	00812c23          	sw	s0,24(sp)
800002c8:	00912a23          	sw	s1,20(sp)
800002cc:	01212823          	sw	s2,16(sp)
800002d0:	01312623          	sw	s3,12(sp)
800002d4:	01412423          	sw	s4,8(sp)
800002d8:	06c79663          	bne	a5,a2,80000344 <fgets+0x90>
800002dc:	00050493          	mv	s1,a0
800002e0:	00050413          	mv	s0,a0
800002e4:	00a00913          	li	s2,10
800002e8:	00d00993          	li	s3,13
800002ec:	00b50a33          	add	s4,a0,a1
800002f0:	00059c63          	bnez	a1,80000308 <fgets+0x54>
800002f4:	0200006f          	j	80000314 <fgets+0x60>
800002f8:	01350e63          	beq	a0,s3,80000314 <fgets+0x60>
800002fc:	00140413          	addi	s0,s0,1
80000300:	461000ef          	jal	ra,80000f60 <outbyte>
80000304:	01440863          	beq	s0,s4,80000314 <fgets+0x60>
80000308:	43d000ef          	jal	ra,80000f44 <inbyte>
8000030c:	00a40023          	sb	a0,0(s0)
80000310:	ff2514e3          	bne	a0,s2,800002f8 <fgets+0x44>
80000314:	00a00513          	li	a0,10
80000318:	449000ef          	jal	ra,80000f60 <outbyte>
8000031c:	00040023          	sb	zero,0(s0)
80000320:	01c12083          	lw	ra,28(sp)
80000324:	01812403          	lw	s0,24(sp)
80000328:	01012903          	lw	s2,16(sp)
8000032c:	00c12983          	lw	s3,12(sp)
80000330:	00812a03          	lw	s4,8(sp)
80000334:	00048513          	mv	a0,s1
80000338:	01412483          	lw	s1,20(sp)
8000033c:	02010113          	addi	sp,sp,32
80000340:	00008067          	ret
80000344:	8000c737          	lui	a4,0x8000c
80000348:	33472703          	lw	a4,820(a4) # 8000c334 <__stack_top+0xc001c334>
8000034c:	04e78863          	beq	a5,a4,8000039c <fgets+0xe8>
80000350:	8000c537          	lui	a0,0x8000c
80000354:	00078593          	mv	a1,a5
80000358:	00c50513          	addi	a0,a0,12 # 8000c00c <__stack_top+0xc001c00c>
8000035c:	e9dff0ef          	jal	ra,800001f8 <fputs>
80000360:	00a00513          	li	a0,10
80000364:	3fd000ef          	jal	ra,80000f60 <outbyte>
80000368:	00a00513          	li	a0,10
8000036c:	3f5000ef          	jal	ra,80000f60 <outbyte>
80000370:	00a00513          	li	a0,10
80000374:	3ed000ef          	jal	ra,80000f60 <outbyte>
80000378:	01c12083          	lw	ra,28(sp)
8000037c:	01812403          	lw	s0,24(sp)
80000380:	01412483          	lw	s1,20(sp)
80000384:	01012903          	lw	s2,16(sp)
80000388:	00c12983          	lw	s3,12(sp)
8000038c:	00812a03          	lw	s4,8(sp)
80000390:	00000513          	li	a0,0
80000394:	02010113          	addi	sp,sp,32
80000398:	00008067          	ret
8000039c:	8000c437          	lui	s0,0x8000c
800003a0:	00a00513          	li	a0,10
800003a4:	03840413          	addi	s0,s0,56 # 8000c038 <__stack_top+0xc001c038>
800003a8:	00140413          	addi	s0,s0,1
800003ac:	3b5000ef          	jal	ra,80000f60 <outbyte>
800003b0:	00044503          	lbu	a0,0(s0)
800003b4:	fe051ae3          	bnez	a0,800003a8 <fgets+0xf4>
800003b8:	fb9ff06f          	j	80000370 <fgets+0xbc>

800003bc <putd>:
800003bc:	0a050e63          	beqz	a0,80000478 <putd+0xbc>
800003c0:	fe010113          	addi	sp,sp,-32
800003c4:	00812c23          	sw	s0,24(sp)
800003c8:	01212823          	sw	s2,16(sp)
800003cc:	00112e23          	sw	ra,28(sp)
800003d0:	00912a23          	sw	s1,20(sp)
800003d4:	01312623          	sw	s3,12(sp)
800003d8:	00050913          	mv	s2,a0
800003dc:	00058413          	mv	s0,a1
800003e0:	08060263          	beqz	a2,80000464 <putd+0xa8>
800003e4:	00040a63          	beqz	s0,800003f8 <putd+0x3c>
800003e8:	fff40413          	addi	s0,s0,-1
800003ec:	03000513          	li	a0,48
800003f0:	371000ef          	jal	ra,80000f60 <outbyte>
800003f4:	fe041ae3          	bnez	s0,800003e8 <putd+0x2c>
800003f8:	3b9ad437          	lui	s0,0x3b9ad
800003fc:	00a00493          	li	s1,10
80000400:	00100693          	li	a3,1
80000404:	a0040413          	addi	s0,s0,-1536 # 3b9aca00 <__heap_size+0x1b9bca00>
80000408:	00a00993          	li	s3,10
8000040c:	0200006f          	j	8000042c <putd+0x70>
80000410:	02e97933          	remu	s2,s2,a4
80000414:	03078793          	addi	a5,a5,48
80000418:	0ff7f513          	zext.b	a0,a5
8000041c:	345000ef          	jal	ra,80000f60 <outbyte>
80000420:	fff48493          	addi	s1,s1,-1
80000424:	00000693          	li	a3,0
80000428:	02048063          	beqz	s1,80000448 <putd+0x8c>
8000042c:	00040713          	mv	a4,s0
80000430:	028957b3          	divu	a5,s2,s0
80000434:	03345433          	divu	s0,s0,s3
80000438:	fc079ce3          	bnez	a5,80000410 <putd+0x54>
8000043c:	fc068ce3          	beqz	a3,80000414 <putd+0x58>
80000440:	fff48493          	addi	s1,s1,-1
80000444:	fe0494e3          	bnez	s1,8000042c <putd+0x70>
80000448:	01c12083          	lw	ra,28(sp)
8000044c:	01812403          	lw	s0,24(sp)
80000450:	01412483          	lw	s1,20(sp)
80000454:	01012903          	lw	s2,16(sp)
80000458:	00c12983          	lw	s3,12(sp)
8000045c:	02010113          	addi	sp,sp,32
80000460:	00008067          	ret
80000464:	f80550e3          	bgez	a0,800003e4 <putd+0x28>
80000468:	02d00513          	li	a0,45
8000046c:	41200933          	neg	s2,s2
80000470:	2f1000ef          	jal	ra,80000f60 <outbyte>
80000474:	f71ff06f          	j	800003e4 <putd+0x28>
80000478:	03000513          	li	a0,48
8000047c:	2e50006f          	j	80000f60 <outbyte>

80000480 <putx>:
80000480:	8000c7b7          	lui	a5,0x8000c
80000484:	fd010113          	addi	sp,sp,-48
80000488:	06478793          	addi	a5,a5,100 # 8000c064 <__stack_top+0xc001c064>
8000048c:	00f12423          	sw	a5,8(sp)
80000490:	8000c7b7          	lui	a5,0x8000c
80000494:	07878793          	addi	a5,a5,120 # 8000c078 <__stack_top+0xc001c078>
80000498:	02812423          	sw	s0,40(sp)
8000049c:	02912223          	sw	s1,36(sp)
800004a0:	03212023          	sw	s2,32(sp)
800004a4:	02112623          	sw	ra,44(sp)
800004a8:	01312e23          	sw	s3,28(sp)
800004ac:	01412c23          	sw	s4,24(sp)
800004b0:	00f12623          	sw	a5,12(sp)
800004b4:	00050493          	mv	s1,a0
800004b8:	00058913          	mv	s2,a1
800004bc:	00060413          	mv	s0,a2
800004c0:	00060a63          	beqz	a2,800004d4 <putx+0x54>
800004c4:	fff40413          	addi	s0,s0,-1
800004c8:	03000513          	li	a0,48
800004cc:	295000ef          	jal	ra,80000f60 <outbyte>
800004d0:	fe041ae3          	bnez	s0,800004c4 <putx+0x44>
800004d4:	01f95713          	srli	a4,s2,0x1f
800004d8:	00e907b3          	add	a5,s2,a4
800004dc:	0017f793          	andi	a5,a5,1
800004e0:	40e787b3          	sub	a5,a5,a4
800004e4:	00279793          	slli	a5,a5,0x2
800004e8:	01010713          	addi	a4,sp,16
800004ec:	00f707b3          	add	a5,a4,a5
800004f0:	ff87aa03          	lw	s4,-8(a5)
800004f4:	01c00413          	li	s0,28
800004f8:	02000993          	li	s3,32
800004fc:	ffc00913          	li	s2,-4
80000500:	40898733          	sub	a4,s3,s0
80000504:	0084d7b3          	srl	a5,s1,s0
80000508:	00fa06b3          	add	a3,s4,a5
8000050c:	ffc40413          	addi	s0,s0,-4
80000510:	00e49633          	sll	a2,s1,a4
80000514:	00078463          	beqz	a5,8000051c <putx+0x9c>
80000518:	00e654b3          	srl	s1,a2,a4
8000051c:	0006c503          	lbu	a0,0(a3)
80000520:	241000ef          	jal	ra,80000f60 <outbyte>
80000524:	fd241ee3          	bne	s0,s2,80000500 <putx+0x80>
80000528:	02c12083          	lw	ra,44(sp)
8000052c:	02812403          	lw	s0,40(sp)
80000530:	02412483          	lw	s1,36(sp)
80000534:	02012903          	lw	s2,32(sp)
80000538:	01c12983          	lw	s3,28(sp)
8000053c:	01812a03          	lw	s4,24(sp)
80000540:	03010113          	addi	sp,sp,48
80000544:	00008067          	ret

80000548 <putf>:
80000548:	fe010113          	addi	sp,sp,-32
8000054c:	00812c23          	sw	s0,24(sp)
80000550:	00912a23          	sw	s1,20(sp)
80000554:	00058413          	mv	s0,a1
80000558:	00050493          	mv	s1,a0
8000055c:	01212823          	sw	s2,16(sp)
80000560:	00048513          	mv	a0,s1
80000564:	00060913          	mv	s2,a2
80000568:	00040593          	mv	a1,s0
8000056c:	00000613          	li	a2,0
80000570:	00000693          	li	a3,0
80000574:	00112e23          	sw	ra,28(sp)
80000578:	01312623          	sw	s3,12(sp)
8000057c:	01412423          	sw	s4,8(sp)
80000580:	01512223          	sw	s5,4(sp)
80000584:	01612023          	sw	s6,0(sp)
80000588:	6bc010ef          	jal	ra,80001c44 <__ledf2>
8000058c:	14054a63          	bltz	a0,800006e0 <putf+0x198>
80000590:	00040593          	mv	a1,s0
80000594:	00048513          	mv	a0,s1
80000598:	544020ef          	jal	ra,80002adc <__fixdfsi>
8000059c:	00050993          	mv	s3,a0
800005a0:	5bc020ef          	jal	ra,80002b5c <__floatsidf>
800005a4:	00050613          	mv	a2,a0
800005a8:	00058693          	mv	a3,a1
800005ac:	00048513          	mv	a0,s1
800005b0:	00040593          	mv	a1,s0
800005b4:	53d010ef          	jal	ra,800022f0 <__subdf3>
800005b8:	00050b13          	mv	s6,a0
800005bc:	00058a93          	mv	s5,a1
800005c0:	13205a63          	blez	s2,800006f4 <putf+0x1ac>
800005c4:	00100413          	li	s0,1
800005c8:	00000493          	li	s1,0
800005cc:	00241793          	slli	a5,s0,0x2
800005d0:	00878433          	add	s0,a5,s0
800005d4:	00048a13          	mv	s4,s1
800005d8:	00148493          	addi	s1,s1,1
800005dc:	00141413          	slli	s0,s0,0x1
800005e0:	fe9916e3          	bne	s2,s1,800005cc <putf+0x84>
800005e4:	00040513          	mv	a0,s0
800005e8:	574020ef          	jal	ra,80002b5c <__floatsidf>
800005ec:	000b0613          	mv	a2,s6
800005f0:	000a8693          	mv	a3,s5
800005f4:	734010ef          	jal	ra,80001d28 <__muldf3>
800005f8:	800037b7          	lui	a5,0x80003
800005fc:	cf07a603          	lw	a2,-784(a5) # 80002cf0 <__stack_top+0xc0012cf0>
80000600:	cf47a683          	lw	a3,-780(a5)
80000604:	669000ef          	jal	ra,8000146c <__adddf3>
80000608:	4d4020ef          	jal	ra,80002adc <__fixdfsi>
8000060c:	028547b3          	div	a5,a0,s0
80000610:	00050913          	mv	s2,a0
80000614:	10079063          	bnez	a5,80000714 <putf+0x1cc>
80000618:	00048793          	mv	a5,s1
8000061c:	00a00693          	li	a3,10
80000620:	00c0006f          	j	8000062c <putf+0xe4>
80000624:	02894733          	div	a4,s2,s0
80000628:	0a071663          	bnez	a4,800006d4 <putf+0x18c>
8000062c:	fff78793          	addi	a5,a5,-1
80000630:	02d44433          	div	s0,s0,a3
80000634:	fe0798e3          	bnez	a5,80000624 <putf+0xdc>
80000638:	08098863          	beqz	s3,800006c8 <putf+0x180>
8000063c:	3b9ad437          	lui	s0,0x3b9ad
80000640:	00a00493          	li	s1,10
80000644:	00100713          	li	a4,1
80000648:	a0040413          	addi	s0,s0,-1536 # 3b9aca00 <__heap_size+0x1b9bca00>
8000064c:	00a00a93          	li	s5,10
80000650:	0200006f          	j	80000670 <putf+0x128>
80000654:	02f9f9b3          	remu	s3,s3,a5
80000658:	03050513          	addi	a0,a0,48
8000065c:	0ff57513          	zext.b	a0,a0
80000660:	101000ef          	jal	ra,80000f60 <outbyte>
80000664:	fff48493          	addi	s1,s1,-1
80000668:	00000713          	li	a4,0
8000066c:	02048063          	beqz	s1,8000068c <putf+0x144>
80000670:	00040793          	mv	a5,s0
80000674:	0289d533          	divu	a0,s3,s0
80000678:	03545433          	divu	s0,s0,s5
8000067c:	fc051ce3          	bnez	a0,80000654 <putf+0x10c>
80000680:	fc070ce3          	beqz	a4,80000658 <putf+0x110>
80000684:	fff48493          	addi	s1,s1,-1
80000688:	fe0494e3          	bnez	s1,80000670 <putf+0x128>
8000068c:	02e00513          	li	a0,46
80000690:	0d1000ef          	jal	ra,80000f60 <outbyte>
80000694:	01812403          	lw	s0,24(sp)
80000698:	01c12083          	lw	ra,28(sp)
8000069c:	01412483          	lw	s1,20(sp)
800006a0:	00c12983          	lw	s3,12(sp)
800006a4:	00412a83          	lw	s5,4(sp)
800006a8:	00012b03          	lw	s6,0(sp)
800006ac:	000a0593          	mv	a1,s4
800006b0:	00090513          	mv	a0,s2
800006b4:	00812a03          	lw	s4,8(sp)
800006b8:	01012903          	lw	s2,16(sp)
800006bc:	00100613          	li	a2,1
800006c0:	02010113          	addi	sp,sp,32
800006c4:	cf9ff06f          	j	800003bc <putd>
800006c8:	03000513          	li	a0,48
800006cc:	095000ef          	jal	ra,80000f60 <outbyte>
800006d0:	fbdff06f          	j	8000068c <putf+0x144>
800006d4:	40f484b3          	sub	s1,s1,a5
800006d8:	fff48a13          	addi	s4,s1,-1
800006dc:	f5dff06f          	j	80000638 <putf+0xf0>
800006e0:	800007b7          	lui	a5,0x80000
800006e4:	02d00513          	li	a0,45
800006e8:	0087c433          	xor	s0,a5,s0
800006ec:	075000ef          	jal	ra,80000f60 <outbyte>
800006f0:	ea1ff06f          	j	80000590 <putf+0x48>
800006f4:	800037b7          	lui	a5,0x80003
800006f8:	cf07a603          	lw	a2,-784(a5) # 80002cf0 <__stack_top+0xc0012cf0>
800006fc:	cf47a683          	lw	a3,-780(a5)
80000700:	fff00a13          	li	s4,-1
80000704:	569000ef          	jal	ra,8000146c <__adddf3>
80000708:	3d4020ef          	jal	ra,80002adc <__fixdfsi>
8000070c:	00050913          	mv	s2,a0
80000710:	f29ff06f          	j	80000638 <putf+0xf0>
80000714:	fff00a13          	li	s4,-1
80000718:	f21ff06f          	j	80000638 <putf+0xf0>

8000071c <printf>:
8000071c:	f8010113          	addi	sp,sp,-128
80000720:	03912a23          	sw	s9,52(sp)
80000724:	06f12a23          	sw	a5,116(sp)
80000728:	04112e23          	sw	ra,92(sp)
8000072c:	04812c23          	sw	s0,88(sp)
80000730:	04912a23          	sw	s1,84(sp)
80000734:	05212823          	sw	s2,80(sp)
80000738:	05312623          	sw	s3,76(sp)
8000073c:	05412423          	sw	s4,72(sp)
80000740:	05512223          	sw	s5,68(sp)
80000744:	05612023          	sw	s6,64(sp)
80000748:	03712e23          	sw	s7,60(sp)
8000074c:	03812c23          	sw	s8,56(sp)
80000750:	03a12823          	sw	s10,48(sp)
80000754:	03b12623          	sw	s11,44(sp)
80000758:	06b12223          	sw	a1,100(sp)
8000075c:	06c12423          	sw	a2,104(sp)
80000760:	06d12623          	sw	a3,108(sp)
80000764:	06e12823          	sw	a4,112(sp)
80000768:	07012c23          	sw	a6,120(sp)
8000076c:	07112e23          	sw	a7,124(sp)
80000770:	06410793          	addi	a5,sp,100
80000774:	00050c93          	mv	s9,a0
80000778:	00054503          	lbu	a0,0(a0)
8000077c:	00f12e23          	sw	a5,28(sp)
80000780:	00600793          	li	a5,6
80000784:	00f12623          	sw	a5,12(sp)
80000788:	0c050063          	beqz	a0,80000848 <printf+0x12c>
8000078c:	8000c937          	lui	s2,0x8000c
80000790:	00000b93          	li	s7,0
80000794:	00000c13          	li	s8,0
80000798:	02500493          	li	s1,37
8000079c:	03000a93          	li	s5,48
800007a0:	07500a13          	li	s4,117
800007a4:	06c00993          	li	s3,108
800007a8:	08c90913          	addi	s2,s2,140 # 8000c08c <__stack_top+0xc001c08c>
800007ac:	01c0006f          	j	800007c8 <printf+0xac>
800007b0:	7b0000ef          	jal	ra,80000f60 <outbyte>
800007b4:	00040793          	mv	a5,s0
800007b8:	000c8413          	mv	s0,s9
800007bc:	00078c93          	mv	s9,a5
800007c0:	00144503          	lbu	a0,1(s0)
800007c4:	08050263          	beqz	a0,80000848 <printf+0x12c>
800007c8:	001c8413          	addi	s0,s9,1
800007cc:	fe9512e3          	bne	a0,s1,800007b0 <printf+0x94>
800007d0:	001cc703          	lbu	a4,1(s9)
800007d4:	0b570a63          	beq	a4,s5,80000888 <printf+0x16c>
800007d8:	fd070793          	addi	a5,a4,-48
800007dc:	0ff7f793          	zext.b	a5,a5
800007e0:	00900693          	li	a3,9
800007e4:	00f6ee63          	bltu	a3,a5,80000800 <printf+0xe4>
800007e8:	00900693          	li	a3,9
800007ec:	00144703          	lbu	a4,1(s0)
800007f0:	00140413          	addi	s0,s0,1
800007f4:	fd070793          	addi	a5,a4,-48
800007f8:	0ff7f793          	zext.b	a5,a5
800007fc:	fef6f8e3          	bgeu	a3,a5,800007ec <printf+0xd0>
80000800:	01471663          	bne	a4,s4,8000080c <printf+0xf0>
80000804:	00140413          	addi	s0,s0,1
80000808:	00100c13          	li	s8,1
8000080c:	00044503          	lbu	a0,0(s0)
80000810:	01351663          	bne	a0,s3,8000081c <printf+0x100>
80000814:	00144503          	lbu	a0,1(s0)
80000818:	00140413          	addi	s0,s0,1
8000081c:	02e00793          	li	a5,46
80000820:	16f50c63          	beq	a0,a5,80000998 <printf+0x27c>
80000824:	fa850793          	addi	a5,a0,-88
80000828:	0ff7f793          	zext.b	a5,a5
8000082c:	02000713          	li	a4,32
80000830:	00140c93          	addi	s9,s0,1
80000834:	04f76e63          	bltu	a4,a5,80000890 <printf+0x174>
80000838:	00279793          	slli	a5,a5,0x2
8000083c:	012787b3          	add	a5,a5,s2
80000840:	0007a783          	lw	a5,0(a5)
80000844:	00078067          	jr	a5
80000848:	05c12083          	lw	ra,92(sp)
8000084c:	05812403          	lw	s0,88(sp)
80000850:	05412483          	lw	s1,84(sp)
80000854:	05012903          	lw	s2,80(sp)
80000858:	04c12983          	lw	s3,76(sp)
8000085c:	04812a03          	lw	s4,72(sp)
80000860:	04412a83          	lw	s5,68(sp)
80000864:	04012b03          	lw	s6,64(sp)
80000868:	03c12b83          	lw	s7,60(sp)
8000086c:	03812c03          	lw	s8,56(sp)
80000870:	03412c83          	lw	s9,52(sp)
80000874:	03012d03          	lw	s10,48(sp)
80000878:	02c12d83          	lw	s11,44(sp)
8000087c:	00000513          	li	a0,0
80000880:	08010113          	addi	sp,sp,128
80000884:	00008067          	ret
80000888:	00100b93          	li	s7,1
8000088c:	f5dff06f          	j	800007e8 <printf+0xcc>
80000890:	6d0000ef          	jal	ra,80000f60 <outbyte>
80000894:	f2dff06f          	j	800007c0 <printf+0xa4>
80000898:	01c12783          	lw	a5,28(sp)
8000089c:	000b8613          	mv	a2,s7
800008a0:	00000593          	li	a1,0
800008a4:	0007a503          	lw	a0,0(a5)
800008a8:	00478793          	addi	a5,a5,4
800008ac:	00f12e23          	sw	a5,28(sp)
800008b0:	bd1ff0ef          	jal	ra,80000480 <putx>
800008b4:	f0dff06f          	j	800007c0 <printf+0xa4>
800008b8:	01c12783          	lw	a5,28(sp)
800008bc:	0007ad03          	lw	s10,0(a5)
800008c0:	00478793          	addi	a5,a5,4
800008c4:	00f12e23          	sw	a5,28(sp)
800008c8:	000d4503          	lbu	a0,0(s10)
800008cc:	ee050ae3          	beqz	a0,800007c0 <printf+0xa4>
800008d0:	001d0d13          	addi	s10,s10,1
800008d4:	68c000ef          	jal	ra,80000f60 <outbyte>
800008d8:	000d4503          	lbu	a0,0(s10)
800008dc:	fe051ae3          	bnez	a0,800008d0 <printf+0x1b4>
800008e0:	ee1ff06f          	j	800007c0 <printf+0xa4>
800008e4:	01c12783          	lw	a5,28(sp)
800008e8:	00c12603          	lw	a2,12(sp)
800008ec:	00778793          	addi	a5,a5,7
800008f0:	ff87f793          	andi	a5,a5,-8
800008f4:	0007a503          	lw	a0,0(a5)
800008f8:	0047a583          	lw	a1,4(a5)
800008fc:	00878793          	addi	a5,a5,8
80000900:	00f12e23          	sw	a5,28(sp)
80000904:	c45ff0ef          	jal	ra,80000548 <putf>
80000908:	eb9ff06f          	j	800007c0 <printf+0xa4>
8000090c:	01c12703          	lw	a4,28(sp)
80000910:	00072783          	lw	a5,0(a4)
80000914:	00470713          	addi	a4,a4,4
80000918:	00e12e23          	sw	a4,28(sp)
8000091c:	0c078e63          	beqz	a5,800009f8 <printf+0x2dc>
80000920:	0a0c0e63          	beqz	s8,800009dc <printf+0x2c0>
80000924:	3b9add37          	lui	s10,0x3b9ad
80000928:	00a00d93          	li	s11,10
8000092c:	00100613          	li	a2,1
80000930:	a00d0d13          	addi	s10,s10,-1536 # 3b9aca00 <__heap_size+0x1b9bca00>
80000934:	00a00b13          	li	s6,10
80000938:	0280006f          	j	80000960 <printf+0x244>
8000093c:	02e7f7b3          	remu	a5,a5,a4
80000940:	03050513          	addi	a0,a0,48
80000944:	0ff57513          	zext.b	a0,a0
80000948:	00f12423          	sw	a5,8(sp)
8000094c:	614000ef          	jal	ra,80000f60 <outbyte>
80000950:	00812783          	lw	a5,8(sp)
80000954:	00000613          	li	a2,0
80000958:	fffd8d93          	addi	s11,s11,-1
8000095c:	e60d82e3          	beqz	s11,800007c0 <printf+0xa4>
80000960:	000d0713          	mv	a4,s10
80000964:	03a7d533          	divu	a0,a5,s10
80000968:	036d5d33          	divu	s10,s10,s6
8000096c:	fc0518e3          	bnez	a0,8000093c <printf+0x220>
80000970:	fe0614e3          	bnez	a2,80000958 <printf+0x23c>
80000974:	fcdff06f          	j	80000940 <printf+0x224>
80000978:	01c12783          	lw	a5,28(sp)
8000097c:	000b8613          	mv	a2,s7
80000980:	00100593          	li	a1,1
80000984:	0007a503          	lw	a0,0(a5)
80000988:	00478793          	addi	a5,a5,4
8000098c:	00f12e23          	sw	a5,28(sp)
80000990:	af1ff0ef          	jal	ra,80000480 <putx>
80000994:	e2dff06f          	j	800007c0 <printf+0xa4>
80000998:	00144b03          	lbu	s6,1(s0)
8000099c:	00a00693          	li	a3,10
800009a0:	00244503          	lbu	a0,2(s0)
800009a4:	fd0b0b13          	addi	s6,s6,-48
800009a8:	02db66b3          	rem	a3,s6,a3
800009ac:	fd050793          	addi	a5,a0,-48
800009b0:	0ff7f793          	zext.b	a5,a5
800009b4:	00900713          	li	a4,9
800009b8:	00240413          	addi	s0,s0,2
800009bc:	00d12623          	sw	a3,12(sp)
800009c0:	e6f762e3          	bltu	a4,a5,80000824 <printf+0x108>
800009c4:	00144503          	lbu	a0,1(s0)
800009c8:	00140413          	addi	s0,s0,1
800009cc:	fd050793          	addi	a5,a0,-48
800009d0:	0ff7f793          	zext.b	a5,a5
800009d4:	fef778e3          	bgeu	a4,a5,800009c4 <printf+0x2a8>
800009d8:	e4dff06f          	j	80000824 <printf+0x108>
800009dc:	f407d4e3          	bgez	a5,80000924 <printf+0x208>
800009e0:	40f007b3          	neg	a5,a5
800009e4:	02d00513          	li	a0,45
800009e8:	00f12423          	sw	a5,8(sp)
800009ec:	574000ef          	jal	ra,80000f60 <outbyte>
800009f0:	00812783          	lw	a5,8(sp)
800009f4:	f31ff06f          	j	80000924 <printf+0x208>
800009f8:	03000513          	li	a0,48
800009fc:	564000ef          	jal	ra,80000f60 <outbyte>
80000a00:	dc1ff06f          	j	800007c0 <printf+0xa4>

80000a04 <exit>:
80000a04:	fe010113          	addi	sp,sp,-32
80000a08:	00112e23          	sw	ra,28(sp)
80000a0c:	00812c23          	sw	s0,24(sp)
80000a10:	02010413          	addi	s0,sp,32
80000a14:	fea42623          	sw	a0,-20(s0)
80000a18:	fec42583          	lw	a1,-20(s0)
80000a1c:	8000c7b7          	lui	a5,0x8000c
80000a20:	11078513          	addi	a0,a5,272 # 8000c110 <__stack_top+0xc001c110>
80000a24:	cf9ff0ef          	jal	ra,8000071c <printf>
80000a28:	8000c7b7          	lui	a5,0x8000c
80000a2c:	13878513          	addi	a0,a5,312 # 8000c138 <__stack_top+0xc001c138>
80000a30:	cedff0ef          	jal	ra,8000071c <printf>
80000a34:	8000c7b7          	lui	a5,0x8000c
80000a38:	17878513          	addi	a0,a5,376 # 8000c178 <__stack_top+0xc001c178>
80000a3c:	ce1ff0ef          	jal	ra,8000071c <printf>
80000a40:	8000c7b7          	lui	a5,0x8000c
80000a44:	1a478513          	addi	a0,a5,420 # 8000c1a4 <__stack_top+0xc001c1a4>
80000a48:	cd5ff0ef          	jal	ra,8000071c <printf>
80000a4c:	0000006f          	j	80000a4c <exit+0x48>

80000a50 <malloc>:
80000a50:	8000c8b7          	lui	a7,0x8000c
80000a54:	8000c6b7          	lui	a3,0x8000c
80000a58:	3548a703          	lw	a4,852(a7) # 8000c354 <__stack_top+0xc001c354>
80000a5c:	3506a583          	lw	a1,848(a3) # 8000c350 <__stack_top+0xc001c350>
80000a60:	00050813          	mv	a6,a0
80000a64:	0ab70263          	beq	a4,a1,80000b08 <malloc+0xb8>
80000a68:	02b77663          	bgeu	a4,a1,80000a94 <malloc+0x44>
80000a6c:	00072783          	lw	a5,0(a4)
80000a70:	0080006f          	j	80000a78 <malloc+0x28>
80000a74:	0007a783          	lw	a5,0(a5)
80000a78:	0017f693          	andi	a3,a5,1
80000a7c:	40e78633          	sub	a2,a5,a4
80000a80:	00069463          	bnez	a3,80000a88 <malloc+0x38>
80000a84:	04c86063          	bltu	a6,a2,80000ac4 <malloc+0x74>
80000a88:	00078713          	mv	a4,a5
80000a8c:	feb7e4e3          	bltu	a5,a1,80000a74 <malloc+0x24>
80000a90:	3548a703          	lw	a4,852(a7)
80000a94:	800037b7          	lui	a5,0x80003
80000a98:	cfc7a783          	lw	a5,-772(a5) # 80002cfc <__stack_top+0xc0012cfc>
80000a9c:	02e7f063          	bgeu	a5,a4,80000abc <malloc+0x6c>
80000aa0:	0007a683          	lw	a3,0(a5)
80000aa4:	0016f613          	andi	a2,a3,1
80000aa8:	40f685b3          	sub	a1,a3,a5
80000aac:	00061463          	bnez	a2,80000ab4 <malloc+0x64>
80000ab0:	08b86a63          	bltu	a6,a1,80000b44 <malloc+0xf4>
80000ab4:	00068793          	mv	a5,a3
80000ab8:	fee6e4e3          	bltu	a3,a4,80000aa0 <malloc+0x50>
80000abc:	00000513          	li	a0,0
80000ac0:	00008067          	ret
80000ac4:	ffe77593          	andi	a1,a4,-2
80000ac8:	00387613          	andi	a2,a6,3
80000acc:	00458513          	addi	a0,a1,4
80000ad0:	06061463          	bnez	a2,80000b38 <malloc+0xe8>
80000ad4:	00480613          	addi	a2,a6,4
80000ad8:	00d606b3          	add	a3,a2,a3
80000adc:	ffc6f613          	andi	a2,a3,-4
80000ae0:	00c70633          	add	a2,a4,a2
80000ae4:	00f686b3          	add	a3,a3,a5
80000ae8:	00f62023          	sw	a5,0(a2)
80000aec:	0016e693          	ori	a3,a3,1
80000af0:	00d72023          	sw	a3,0(a4)
80000af4:	34c8aa23          	sw	a2,852(a7)
80000af8:	ffc00793          	li	a5,-4
80000afc:	00060713          	mv	a4,a2
80000b00:	f8f58ae3          	beq	a1,a5,80000a94 <malloc+0x44>
80000b04:	00008067          	ret
80000b08:	800037b7          	lui	a5,0x80003
80000b0c:	cfc7a703          	lw	a4,-772(a5) # 80002cfc <__stack_top+0xc0012cfc>
80000b10:	800037b7          	lui	a5,0x80003
80000b14:	cf87a783          	lw	a5,-776(a5) # 80002cf8 <__stack_top+0xc0012cf8>
80000b18:	34e8aa23          	sw	a4,852(a7)
80000b1c:	00f707b3          	add	a5,a4,a5
80000b20:	ff07f793          	andi	a5,a5,-16
80000b24:	34f6a823          	sw	a5,848(a3)
80000b28:	00f72023          	sw	a5,0(a4)
80000b2c:	00078593          	mv	a1,a5
80000b30:	f4f764e3          	bltu	a4,a5,80000a78 <malloc+0x28>
80000b34:	f89ff06f          	j	80000abc <malloc+0x6c>
80000b38:	00400693          	li	a3,4
80000b3c:	40c686b3          	sub	a3,a3,a2
80000b40:	f95ff06f          	j	80000ad4 <malloc+0x84>
80000b44:	ffe7f513          	andi	a0,a5,-2
80000b48:	00387593          	andi	a1,a6,3
80000b4c:	00450513          	addi	a0,a0,4
80000b50:	00058663          	beqz	a1,80000b5c <malloc+0x10c>
80000b54:	00400713          	li	a4,4
80000b58:	40b70633          	sub	a2,a4,a1
80000b5c:	00480713          	addi	a4,a6,4
80000b60:	00c70733          	add	a4,a4,a2
80000b64:	ffc77613          	andi	a2,a4,-4
80000b68:	00c78633          	add	a2,a5,a2
80000b6c:	00e68733          	add	a4,a3,a4
80000b70:	00d62023          	sw	a3,0(a2)
80000b74:	00176713          	ori	a4,a4,1
80000b78:	34c8aa23          	sw	a2,852(a7)
80000b7c:	00e7a023          	sw	a4,0(a5)
80000b80:	00008067          	ret

80000b84 <free>:
80000b84:	ffc52783          	lw	a5,-4(a0)
80000b88:	ffe7f793          	andi	a5,a5,-2
80000b8c:	fef52e23          	sw	a5,-4(a0)
80000b90:	00008067          	ret

80000b94 <calloc>:
80000b94:	ff010113          	addi	sp,sp,-16
80000b98:	00912423          	sw	s1,8(sp)
80000b9c:	02b504b3          	mul	s1,a0,a1
80000ba0:	00112623          	sw	ra,12(sp)
80000ba4:	01212223          	sw	s2,4(sp)
80000ba8:	00048513          	mv	a0,s1
80000bac:	ea5ff0ef          	jal	ra,80000a50 <malloc>
80000bb0:	00048613          	mv	a2,s1
80000bb4:	00000593          	li	a1,0
80000bb8:	00050913          	mv	s2,a0
80000bbc:	180000ef          	jal	ra,80000d3c <memset>
80000bc0:	00c12083          	lw	ra,12(sp)
80000bc4:	00812483          	lw	s1,8(sp)
80000bc8:	00090513          	mv	a0,s2
80000bcc:	00412903          	lw	s2,4(sp)
80000bd0:	01010113          	addi	sp,sp,16
80000bd4:	00008067          	ret

80000bd8 <atoi>:
80000bd8:	00050793          	mv	a5,a0
80000bdc:	02000693          	li	a3,32
80000be0:	00900613          	li	a2,9
80000be4:	0007c703          	lbu	a4,0(a5)
80000be8:	00d70463          	beq	a4,a3,80000bf0 <atoi+0x18>
80000bec:	00c71663          	bne	a4,a2,80000bf8 <atoi+0x20>
80000bf0:	00178793          	addi	a5,a5,1
80000bf4:	ff1ff06f          	j	80000be4 <atoi+0xc>
80000bf8:	02d00693          	li	a3,45
80000bfc:	00100813          	li	a6,1
80000c00:	00d71863          	bne	a4,a3,80000c10 <atoi+0x38>
80000c04:	0017c703          	lbu	a4,1(a5)
80000c08:	fff00813          	li	a6,-1
80000c0c:	00178793          	addi	a5,a5,1
80000c10:	fd070713          	addi	a4,a4,-48
80000c14:	0ff77613          	zext.b	a2,a4
80000c18:	00900693          	li	a3,9
80000c1c:	00000513          	li	a0,0
80000c20:	04c6e263          	bltu	a3,a2,80000c64 <atoi+0x8c>
80000c24:	0017c683          	lbu	a3,1(a5)
80000c28:	00178793          	addi	a5,a5,1
80000c2c:	02068e63          	beqz	a3,80000c68 <atoi+0x90>
80000c30:	00900593          	li	a1,9
80000c34:	0100006f          	j	80000c44 <atoi+0x6c>
80000c38:	0007c683          	lbu	a3,0(a5)
80000c3c:	00e60733          	add	a4,a2,a4
80000c40:	02068463          	beqz	a3,80000c68 <atoi+0x90>
80000c44:	00271513          	slli	a0,a4,0x2
80000c48:	fd068613          	addi	a2,a3,-48
80000c4c:	00e50733          	add	a4,a0,a4
80000c50:	0ff67693          	zext.b	a3,a2
80000c54:	00178793          	addi	a5,a5,1
80000c58:	00171713          	slli	a4,a4,0x1
80000c5c:	fcd5fee3          	bgeu	a1,a3,80000c38 <atoi+0x60>
80000c60:	00000513          	li	a0,0
80000c64:	00008067          	ret
80000c68:	02e80533          	mul	a0,a6,a4
80000c6c:	00008067          	ret

80000c70 <abs>:
80000c70:	41f55793          	srai	a5,a0,0x1f
80000c74:	00a7c533          	xor	a0,a5,a0
80000c78:	40f50533          	sub	a0,a0,a5
80000c7c:	00008067          	ret

80000c80 <srand>:
80000c80:	8000c7b7          	lui	a5,0x8000c
80000c84:	34a7a623          	sw	a0,844(a5) # 8000c34c <__stack_top+0xc001c34c>
80000c88:	00008067          	ret

80000c8c <rand>:
80000c8c:	8000c6b7          	lui	a3,0x8000c
80000c90:	34c6a783          	lw	a5,844(a3) # 8000c34c <__stack_top+0xc001c34c>
80000c94:	00034737          	lui	a4,0x34
80000c98:	3fd70713          	addi	a4,a4,1021 # 343fd <__heap_size-0x1ffbbc03>
80000c9c:	02e787b3          	mul	a5,a5,a4
80000ca0:	0026a737          	lui	a4,0x26a
80000ca4:	ec370713          	addi	a4,a4,-317 # 269ec3 <__heap_size-0x1fd8613d>
80000ca8:	00e787b3          	add	a5,a5,a4
80000cac:	00179513          	slli	a0,a5,0x1
80000cb0:	34f6a623          	sw	a5,844(a3)
80000cb4:	01155513          	srli	a0,a0,0x11
80000cb8:	00008067          	ret

80000cbc <memcpy>:
80000cbc:	02060063          	beqz	a2,80000cdc <memcpy+0x20>
80000cc0:	00c50633          	add	a2,a0,a2
80000cc4:	00050793          	mv	a5,a0
80000cc8:	0005c703          	lbu	a4,0(a1)
80000ccc:	00178793          	addi	a5,a5,1
80000cd0:	00158593          	addi	a1,a1,1
80000cd4:	fee78fa3          	sb	a4,-1(a5)
80000cd8:	fec798e3          	bne	a5,a2,80000cc8 <memcpy+0xc>
80000cdc:	00008067          	ret

80000ce0 <memmove>:
80000ce0:	02b56a63          	bltu	a0,a1,80000d14 <memmove+0x34>
80000ce4:	00c587b3          	add	a5,a1,a2
80000ce8:	02a7e663          	bltu	a5,a0,80000d14 <memmove+0x34>
80000cec:	fff60793          	addi	a5,a2,-1
80000cf0:	0407c263          	bltz	a5,80000d34 <memmove+0x54>
80000cf4:	fff00613          	li	a2,-1
80000cf8:	00f58733          	add	a4,a1,a5
80000cfc:	00074683          	lbu	a3,0(a4)
80000d00:	00f50733          	add	a4,a0,a5
80000d04:	fff78793          	addi	a5,a5,-1
80000d08:	00d70023          	sb	a3,0(a4)
80000d0c:	fec796e3          	bne	a5,a2,80000cf8 <memmove+0x18>
80000d10:	00008067          	ret
80000d14:	00c506b3          	add	a3,a0,a2
80000d18:	00050793          	mv	a5,a0
80000d1c:	00060e63          	beqz	a2,80000d38 <memmove+0x58>
80000d20:	0005c703          	lbu	a4,0(a1)
80000d24:	00178793          	addi	a5,a5,1
80000d28:	00158593          	addi	a1,a1,1
80000d2c:	fee78fa3          	sb	a4,-1(a5)
80000d30:	fef698e3          	bne	a3,a5,80000d20 <memmove+0x40>
80000d34:	00008067          	ret
80000d38:	00008067          	ret

80000d3c <memset>:
80000d3c:	0ff5f593          	zext.b	a1,a1
80000d40:	00c50733          	add	a4,a0,a2
80000d44:	00050793          	mv	a5,a0
80000d48:	00060863          	beqz	a2,80000d58 <memset+0x1c>
80000d4c:	00178793          	addi	a5,a5,1
80000d50:	feb78fa3          	sb	a1,-1(a5)
80000d54:	fee79ce3          	bne	a5,a4,80000d4c <memset+0x10>
80000d58:	00008067          	ret

80000d5c <strlen>:
80000d5c:	00054783          	lbu	a5,0(a0)
80000d60:	00050713          	mv	a4,a0
80000d64:	00000513          	li	a0,0
80000d68:	00078c63          	beqz	a5,80000d80 <strlen+0x24>
80000d6c:	00150513          	addi	a0,a0,1
80000d70:	00a707b3          	add	a5,a4,a0
80000d74:	0007c783          	lbu	a5,0(a5)
80000d78:	fe079ae3          	bnez	a5,80000d6c <strlen+0x10>
80000d7c:	00008067          	ret
80000d80:	00008067          	ret

80000d84 <strcpy>:
80000d84:	0005c783          	lbu	a5,0(a1)
80000d88:	00050713          	mv	a4,a0
80000d8c:	00078c63          	beqz	a5,80000da4 <strcpy+0x20>
80000d90:	00f70023          	sb	a5,0(a4)
80000d94:	0015c783          	lbu	a5,1(a1)
80000d98:	00158593          	addi	a1,a1,1
80000d9c:	00170713          	addi	a4,a4,1
80000da0:	fe0798e3          	bnez	a5,80000d90 <strcpy+0xc>
80000da4:	00070023          	sb	zero,0(a4)
80000da8:	00008067          	ret

80000dac <strncpy>:
80000dac:	0005c703          	lbu	a4,0(a1)
80000db0:	04070463          	beqz	a4,80000df8 <strncpy+0x4c>
80000db4:	02060e63          	beqz	a2,80000df0 <strncpy+0x44>
80000db8:	00050793          	mv	a5,a0
80000dbc:	0080006f          	j	80000dc4 <strncpy+0x18>
80000dc0:	02060a63          	beqz	a2,80000df4 <strncpy+0x48>
80000dc4:	00e78023          	sb	a4,0(a5)
80000dc8:	0015c703          	lbu	a4,1(a1)
80000dcc:	00178793          	addi	a5,a5,1
80000dd0:	00158593          	addi	a1,a1,1
80000dd4:	fff60613          	addi	a2,a2,-1
80000dd8:	fe0714e3          	bnez	a4,80000dc0 <strncpy+0x14>
80000ddc:	00c78733          	add	a4,a5,a2
80000de0:	02060063          	beqz	a2,80000e00 <strncpy+0x54>
80000de4:	00178793          	addi	a5,a5,1
80000de8:	fe078fa3          	sb	zero,-1(a5)
80000dec:	fee79ce3          	bne	a5,a4,80000de4 <strncpy+0x38>
80000df0:	00008067          	ret
80000df4:	00008067          	ret
80000df8:	00050793          	mv	a5,a0
80000dfc:	fe1ff06f          	j	80000ddc <strncpy+0x30>
80000e00:	00008067          	ret

80000e04 <strcat>:
80000e04:	00054783          	lbu	a5,0(a0)
80000e08:	02078c63          	beqz	a5,80000e40 <strcat+0x3c>
80000e0c:	00050793          	mv	a5,a0
80000e10:	0017c703          	lbu	a4,1(a5)
80000e14:	00178793          	addi	a5,a5,1
80000e18:	fe071ce3          	bnez	a4,80000e10 <strcat+0xc>
80000e1c:	0005c703          	lbu	a4,0(a1)
80000e20:	00070c63          	beqz	a4,80000e38 <strcat+0x34>
80000e24:	00e78023          	sb	a4,0(a5)
80000e28:	0015c703          	lbu	a4,1(a1)
80000e2c:	00158593          	addi	a1,a1,1
80000e30:	00178793          	addi	a5,a5,1
80000e34:	fe0718e3          	bnez	a4,80000e24 <strcat+0x20>
80000e38:	00078023          	sb	zero,0(a5)
80000e3c:	00008067          	ret
80000e40:	00050793          	mv	a5,a0
80000e44:	fd9ff06f          	j	80000e1c <strcat+0x18>

80000e48 <strncat>:
80000e48:	00054783          	lbu	a5,0(a0)
80000e4c:	04078463          	beqz	a5,80000e94 <strncat+0x4c>
80000e50:	00050793          	mv	a5,a0
80000e54:	0017c703          	lbu	a4,1(a5)
80000e58:	00178793          	addi	a5,a5,1
80000e5c:	fe071ce3          	bnez	a4,80000e54 <strncat+0xc>
80000e60:	0005c703          	lbu	a4,0(a1)
80000e64:	02070463          	beqz	a4,80000e8c <strncat+0x44>
80000e68:	02060263          	beqz	a2,80000e8c <strncat+0x44>
80000e6c:	00c58633          	add	a2,a1,a2
80000e70:	0080006f          	j	80000e78 <strncat+0x30>
80000e74:	00b60c63          	beq	a2,a1,80000e8c <strncat+0x44>
80000e78:	00e78023          	sb	a4,0(a5)
80000e7c:	0015c703          	lbu	a4,1(a1)
80000e80:	00158593          	addi	a1,a1,1
80000e84:	00178793          	addi	a5,a5,1
80000e88:	fe0716e3          	bnez	a4,80000e74 <strncat+0x2c>
80000e8c:	00078023          	sb	zero,0(a5)
80000e90:	00008067          	ret
80000e94:	00050793          	mv	a5,a0
80000e98:	fc9ff06f          	j	80000e60 <strncat+0x18>

80000e9c <strcmp>:
80000e9c:	fff50513          	addi	a0,a0,-1
80000ea0:	fff58593          	addi	a1,a1,-1
80000ea4:	0080006f          	j	80000eac <strcmp+0x10>
80000ea8:	02078463          	beqz	a5,80000ed0 <strcmp+0x34>
80000eac:	00154783          	lbu	a5,1(a0)
80000eb0:	0015c703          	lbu	a4,1(a1)
80000eb4:	00150513          	addi	a0,a0,1
80000eb8:	00158593          	addi	a1,a1,1
80000ebc:	fee786e3          	beq	a5,a4,80000ea8 <strcmp+0xc>
80000ec0:	00e7b533          	sltu	a0,a5,a4
80000ec4:	40a00533          	neg	a0,a0
80000ec8:	00156513          	ori	a0,a0,1
80000ecc:	00008067          	ret
80000ed0:	00000513          	li	a0,0
80000ed4:	00008067          	ret

80000ed8 <strncmp>:
80000ed8:	fff60613          	addi	a2,a2,-1
80000edc:	fff58593          	addi	a1,a1,-1
80000ee0:	00c50633          	add	a2,a0,a2
80000ee4:	0100006f          	j	80000ef4 <strncmp+0x1c>
80000ee8:	02a60663          	beq	a2,a0,80000f14 <strncmp+0x3c>
80000eec:	02078463          	beqz	a5,80000f14 <strncmp+0x3c>
80000ef0:	00150513          	addi	a0,a0,1
80000ef4:	0015c703          	lbu	a4,1(a1)
80000ef8:	00054783          	lbu	a5,0(a0)
80000efc:	00158593          	addi	a1,a1,1
80000f00:	fee784e3          	beq	a5,a4,80000ee8 <strncmp+0x10>
80000f04:	00e7b533          	sltu	a0,a5,a4
80000f08:	40a00533          	neg	a0,a0
80000f0c:	00156513          	ori	a0,a0,1
80000f10:	00008067          	ret
80000f14:	00000513          	li	a0,0
80000f18:	00008067          	ret

80000f1c <clock>:
80000f1c:	ff010113          	addi	sp,sp,-16
80000f20:	00112623          	sw	ra,12(sp)
80000f24:	b0002573          	csrr	a0,mcycle
80000f28:	b80025f3          	csrr	a1,mcycleh
80000f2c:	06400613          	li	a2,100
80000f30:	00000693          	li	a3,0
80000f34:	0b8000ef          	jal	ra,80000fec <__divdi3>
80000f38:	00c12083          	lw	ra,12(sp)
80000f3c:	01010113          	addi	sp,sp,16
80000f40:	00008067          	ret

80000f44 <inbyte>:
80000f44:	c0000737          	lui	a4,0xc0000
80000f48:	00872783          	lw	a5,8(a4) # c0000008 <__stack_top+0x10008>
80000f4c:	0017f793          	andi	a5,a5,1
80000f50:	fe078ce3          	beqz	a5,80000f48 <inbyte+0x4>
80000f54:	00072503          	lw	a0,0(a4)
80000f58:	0ff57513          	zext.b	a0,a0
80000f5c:	00008067          	ret

80000f60 <outbyte>:
80000f60:	00a00793          	li	a5,10
80000f64:	00f50e63          	beq	a0,a5,80000f80 <outbyte+0x20>
80000f68:	c0000737          	lui	a4,0xc0000
80000f6c:	00872783          	lw	a5,8(a4) # c0000008 <__stack_top+0x10008>
80000f70:	0087f793          	andi	a5,a5,8
80000f74:	fe079ce3          	bnez	a5,80000f6c <outbyte+0xc>
80000f78:	00a72223          	sw	a0,4(a4)
80000f7c:	00008067          	ret
80000f80:	c0000737          	lui	a4,0xc0000
80000f84:	00872783          	lw	a5,8(a4) # c0000008 <__stack_top+0x10008>
80000f88:	0087f793          	andi	a5,a5,8
80000f8c:	fe079ce3          	bnez	a5,80000f84 <outbyte+0x24>
80000f90:	00d00793          	li	a5,13
80000f94:	00f72223          	sw	a5,4(a4)
80000f98:	fd1ff06f          	j	80000f68 <outbyte+0x8>

80000f9c <setStats>:
80000f9c:	b00027f3          	csrr	a5,mcycle
80000fa0:	8000c737          	lui	a4,0x8000c
80000fa4:	00051e63          	bnez	a0,80000fc0 <setStats+0x24>
80000fa8:	36872683          	lw	a3,872(a4) # 8000c368 <__stack_top+0xc001c368>
80000fac:	8000c637          	lui	a2,0x8000c
80000fb0:	40d787b3          	sub	a5,a5,a3
80000fb4:	8000c6b7          	lui	a3,0x8000c
80000fb8:	1dc68693          	addi	a3,a3,476 # 8000c1dc <__stack_top+0xc001c1dc>
80000fbc:	36d62223          	sw	a3,868(a2) # 8000c364 <__stack_top+0xc001c364>
80000fc0:	36f72423          	sw	a5,872(a4)
80000fc4:	00008067          	ret

80000fc8 <disStats>:
80000fc8:	8000c7b7          	lui	a5,0x8000c
80000fcc:	3687a603          	lw	a2,872(a5) # 8000c368 <__stack_top+0xc001c368>
80000fd0:	00060c63          	beqz	a2,80000fe8 <disStats+0x20>
80000fd4:	8000c7b7          	lui	a5,0x8000c
80000fd8:	3647a583          	lw	a1,868(a5) # 8000c364 <__stack_top+0xc001c364>
80000fdc:	8000c537          	lui	a0,0x8000c
80000fe0:	1e450513          	addi	a0,a0,484 # 8000c1e4 <__stack_top+0xc001c1e4>
80000fe4:	f38ff06f          	j	8000071c <printf>
80000fe8:	00008067          	ret

80000fec <__divdi3>:
80000fec:	00050e13          	mv	t3,a0
80000ff0:	00000813          	li	a6,0
80000ff4:	0005dc63          	bgez	a1,8000100c <__divdi3+0x20>
80000ff8:	00a037b3          	snez	a5,a0
80000ffc:	40b005b3          	neg	a1,a1
80001000:	40f585b3          	sub	a1,a1,a5
80001004:	40a00e33          	neg	t3,a0
80001008:	fff00813          	li	a6,-1
8000100c:	0006dc63          	bgez	a3,80001024 <__divdi3+0x38>
80001010:	00c037b3          	snez	a5,a2
80001014:	40d006b3          	neg	a3,a3
80001018:	fff84813          	not	a6,a6
8000101c:	40f686b3          	sub	a3,a3,a5
80001020:	40c00633          	neg	a2,a2
80001024:	00060893          	mv	a7,a2
80001028:	00068f13          	mv	t5,a3
8000102c:	000e0e93          	mv	t4,t3
80001030:	00058313          	mv	t1,a1
80001034:	2a069063          	bnez	a3,800012d4 <__divdi3+0x2e8>
80001038:	8000c737          	lui	a4,0x8000c
8000103c:	22c70713          	addi	a4,a4,556 # 8000c22c <__stack_top+0xc001c22c>
80001040:	0ec5f663          	bgeu	a1,a2,8000112c <__divdi3+0x140>
80001044:	000107b7          	lui	a5,0x10
80001048:	0cf67863          	bgeu	a2,a5,80001118 <__divdi3+0x12c>
8000104c:	0ff00793          	li	a5,255
80001050:	00c7b7b3          	sltu	a5,a5,a2
80001054:	00379793          	slli	a5,a5,0x3
80001058:	00f656b3          	srl	a3,a2,a5
8000105c:	00d70733          	add	a4,a4,a3
80001060:	00074683          	lbu	a3,0(a4)
80001064:	00f687b3          	add	a5,a3,a5
80001068:	02000693          	li	a3,32
8000106c:	40f68733          	sub	a4,a3,a5
80001070:	00f68c63          	beq	a3,a5,80001088 <__divdi3+0x9c>
80001074:	00e595b3          	sll	a1,a1,a4
80001078:	00fe57b3          	srl	a5,t3,a5
8000107c:	00e618b3          	sll	a7,a2,a4
80001080:	00b7e333          	or	t1,a5,a1
80001084:	00ee1eb3          	sll	t4,t3,a4
80001088:	0108d513          	srli	a0,a7,0x10
8000108c:	02a356b3          	divu	a3,t1,a0
80001090:	01089593          	slli	a1,a7,0x10
80001094:	0105d593          	srli	a1,a1,0x10
80001098:	010ed793          	srli	a5,t4,0x10
8000109c:	02a37733          	remu	a4,t1,a0
800010a0:	00068613          	mv	a2,a3
800010a4:	02d58333          	mul	t1,a1,a3
800010a8:	01071713          	slli	a4,a4,0x10
800010ac:	00f767b3          	or	a5,a4,a5
800010b0:	0067fe63          	bgeu	a5,t1,800010cc <__divdi3+0xe0>
800010b4:	011787b3          	add	a5,a5,a7
800010b8:	fff68613          	addi	a2,a3,-1
800010bc:	0117e863          	bltu	a5,a7,800010cc <__divdi3+0xe0>
800010c0:	0067f663          	bgeu	a5,t1,800010cc <__divdi3+0xe0>
800010c4:	ffe68613          	addi	a2,a3,-2
800010c8:	011787b3          	add	a5,a5,a7
800010cc:	406787b3          	sub	a5,a5,t1
800010d0:	02a7f733          	remu	a4,a5,a0
800010d4:	010e9e93          	slli	t4,t4,0x10
800010d8:	010ede93          	srli	t4,t4,0x10
800010dc:	02a7d7b3          	divu	a5,a5,a0
800010e0:	01071713          	slli	a4,a4,0x10
800010e4:	01d76eb3          	or	t4,a4,t4
800010e8:	02f586b3          	mul	a3,a1,a5
800010ec:	00078713          	mv	a4,a5
800010f0:	00defc63          	bgeu	t4,a3,80001108 <__divdi3+0x11c>
800010f4:	01d88eb3          	add	t4,a7,t4
800010f8:	fff78713          	addi	a4,a5,-1 # ffff <__heap_size-0x1ffe0001>
800010fc:	011ee663          	bltu	t4,a7,80001108 <__divdi3+0x11c>
80001100:	00def463          	bgeu	t4,a3,80001108 <__divdi3+0x11c>
80001104:	ffe78713          	addi	a4,a5,-2
80001108:	01061513          	slli	a0,a2,0x10
8000110c:	00e56533          	or	a0,a0,a4
80001110:	00000313          	li	t1,0
80001114:	0e40006f          	j	800011f8 <__divdi3+0x20c>
80001118:	010006b7          	lui	a3,0x1000
8000111c:	01000793          	li	a5,16
80001120:	f2d66ce3          	bltu	a2,a3,80001058 <__divdi3+0x6c>
80001124:	01800793          	li	a5,24
80001128:	f31ff06f          	j	80001058 <__divdi3+0x6c>
8000112c:	00061663          	bnez	a2,80001138 <__divdi3+0x14c>
80001130:	00100893          	li	a7,1
80001134:	02d8d8b3          	divu	a7,a7,a3
80001138:	000107b7          	lui	a5,0x10
8000113c:	0cf8fc63          	bgeu	a7,a5,80001214 <__divdi3+0x228>
80001140:	0ff00793          	li	a5,255
80001144:	0117f463          	bgeu	a5,a7,8000114c <__divdi3+0x160>
80001148:	00800f13          	li	t5,8
8000114c:	01e8d7b3          	srl	a5,a7,t5
80001150:	00f70733          	add	a4,a4,a5
80001154:	00074783          	lbu	a5,0(a4)
80001158:	02000693          	li	a3,32
8000115c:	01e787b3          	add	a5,a5,t5
80001160:	40f68733          	sub	a4,a3,a5
80001164:	0cf69263          	bne	a3,a5,80001228 <__divdi3+0x23c>
80001168:	411585b3          	sub	a1,a1,a7
8000116c:	00100313          	li	t1,1
80001170:	0108d513          	srli	a0,a7,0x10
80001174:	01089613          	slli	a2,a7,0x10
80001178:	01065613          	srli	a2,a2,0x10
8000117c:	010ed713          	srli	a4,t4,0x10
80001180:	02a5d7b3          	divu	a5,a1,a0
80001184:	02a5f6b3          	remu	a3,a1,a0
80001188:	02f605b3          	mul	a1,a2,a5
8000118c:	01069693          	slli	a3,a3,0x10
80001190:	00e6e733          	or	a4,a3,a4
80001194:	00078693          	mv	a3,a5
80001198:	00b77e63          	bgeu	a4,a1,800011b4 <__divdi3+0x1c8>
8000119c:	01170733          	add	a4,a4,a7
800011a0:	fff78693          	addi	a3,a5,-1 # ffff <__heap_size-0x1ffe0001>
800011a4:	01176863          	bltu	a4,a7,800011b4 <__divdi3+0x1c8>
800011a8:	00b77663          	bgeu	a4,a1,800011b4 <__divdi3+0x1c8>
800011ac:	ffe78693          	addi	a3,a5,-2
800011b0:	01170733          	add	a4,a4,a7
800011b4:	40b70733          	sub	a4,a4,a1
800011b8:	02a777b3          	remu	a5,a4,a0
800011bc:	010e9e93          	slli	t4,t4,0x10
800011c0:	010ede93          	srli	t4,t4,0x10
800011c4:	02a75733          	divu	a4,a4,a0
800011c8:	01079793          	slli	a5,a5,0x10
800011cc:	01d7eeb3          	or	t4,a5,t4
800011d0:	02e60633          	mul	a2,a2,a4
800011d4:	00070793          	mv	a5,a4
800011d8:	00cefc63          	bgeu	t4,a2,800011f0 <__divdi3+0x204>
800011dc:	01d88eb3          	add	t4,a7,t4
800011e0:	fff70793          	addi	a5,a4,-1
800011e4:	011ee663          	bltu	t4,a7,800011f0 <__divdi3+0x204>
800011e8:	00cef463          	bgeu	t4,a2,800011f0 <__divdi3+0x204>
800011ec:	ffe70793          	addi	a5,a4,-2
800011f0:	01069513          	slli	a0,a3,0x10
800011f4:	00f56533          	or	a0,a0,a5
800011f8:	00030593          	mv	a1,t1
800011fc:	00080a63          	beqz	a6,80001210 <__divdi3+0x224>
80001200:	00a037b3          	snez	a5,a0
80001204:	406005b3          	neg	a1,t1
80001208:	40f585b3          	sub	a1,a1,a5
8000120c:	40a00533          	neg	a0,a0
80001210:	00008067          	ret
80001214:	010007b7          	lui	a5,0x1000
80001218:	01000f13          	li	t5,16
8000121c:	f2f8e8e3          	bltu	a7,a5,8000114c <__divdi3+0x160>
80001220:	01800f13          	li	t5,24
80001224:	f29ff06f          	j	8000114c <__divdi3+0x160>
80001228:	00e898b3          	sll	a7,a7,a4
8000122c:	00f5d533          	srl	a0,a1,a5
80001230:	00ee1eb3          	sll	t4,t3,a4
80001234:	00e595b3          	sll	a1,a1,a4
80001238:	00fe57b3          	srl	a5,t3,a5
8000123c:	0108de13          	srli	t3,a7,0x10
80001240:	00b7e633          	or	a2,a5,a1
80001244:	03c557b3          	divu	a5,a0,t3
80001248:	01089593          	slli	a1,a7,0x10
8000124c:	0105d593          	srli	a1,a1,0x10
80001250:	03c57733          	remu	a4,a0,t3
80001254:	01065513          	srli	a0,a2,0x10
80001258:	00078313          	mv	t1,a5
8000125c:	02f586b3          	mul	a3,a1,a5
80001260:	01071713          	slli	a4,a4,0x10
80001264:	00a76733          	or	a4,a4,a0
80001268:	00d77e63          	bgeu	a4,a3,80001284 <__divdi3+0x298>
8000126c:	01170733          	add	a4,a4,a7
80001270:	fff78313          	addi	t1,a5,-1 # ffffff <__heap_size-0x1eff0001>
80001274:	01176863          	bltu	a4,a7,80001284 <__divdi3+0x298>
80001278:	00d77663          	bgeu	a4,a3,80001284 <__divdi3+0x298>
8000127c:	ffe78313          	addi	t1,a5,-2
80001280:	01170733          	add	a4,a4,a7
80001284:	40d706b3          	sub	a3,a4,a3
80001288:	03c6f733          	remu	a4,a3,t3
8000128c:	01061613          	slli	a2,a2,0x10
80001290:	01065613          	srli	a2,a2,0x10
80001294:	03c6d6b3          	divu	a3,a3,t3
80001298:	01071713          	slli	a4,a4,0x10
8000129c:	02d587b3          	mul	a5,a1,a3
800012a0:	00c765b3          	or	a1,a4,a2
800012a4:	00068713          	mv	a4,a3
800012a8:	00f5fe63          	bgeu	a1,a5,800012c4 <__divdi3+0x2d8>
800012ac:	011585b3          	add	a1,a1,a7
800012b0:	fff68713          	addi	a4,a3,-1 # ffffff <__heap_size-0x1eff0001>
800012b4:	0115e863          	bltu	a1,a7,800012c4 <__divdi3+0x2d8>
800012b8:	00f5f663          	bgeu	a1,a5,800012c4 <__divdi3+0x2d8>
800012bc:	ffe68713          	addi	a4,a3,-2
800012c0:	011585b3          	add	a1,a1,a7
800012c4:	01031313          	slli	t1,t1,0x10
800012c8:	40f585b3          	sub	a1,a1,a5
800012cc:	00e36333          	or	t1,t1,a4
800012d0:	ea1ff06f          	j	80001170 <__divdi3+0x184>
800012d4:	18d5e663          	bltu	a1,a3,80001460 <__divdi3+0x474>
800012d8:	000107b7          	lui	a5,0x10
800012dc:	04f6f463          	bgeu	a3,a5,80001324 <__divdi3+0x338>
800012e0:	0ff00713          	li	a4,255
800012e4:	00d737b3          	sltu	a5,a4,a3
800012e8:	00379793          	slli	a5,a5,0x3
800012ec:	8000c737          	lui	a4,0x8000c
800012f0:	00f6d533          	srl	a0,a3,a5
800012f4:	22c70713          	addi	a4,a4,556 # 8000c22c <__stack_top+0xc001c22c>
800012f8:	00a70733          	add	a4,a4,a0
800012fc:	00074703          	lbu	a4,0(a4)
80001300:	00f70733          	add	a4,a4,a5
80001304:	02000793          	li	a5,32
80001308:	40e78333          	sub	t1,a5,a4
8000130c:	02e79663          	bne	a5,a4,80001338 <__divdi3+0x34c>
80001310:	00100513          	li	a0,1
80001314:	eeb6e2e3          	bltu	a3,a1,800011f8 <__divdi3+0x20c>
80001318:	00ce3533          	sltu	a0,t3,a2
8000131c:	00154513          	xori	a0,a0,1
80001320:	ed9ff06f          	j	800011f8 <__divdi3+0x20c>
80001324:	01000737          	lui	a4,0x1000
80001328:	01000793          	li	a5,16
8000132c:	fce6e0e3          	bltu	a3,a4,800012ec <__divdi3+0x300>
80001330:	01800793          	li	a5,24
80001334:	fb9ff06f          	j	800012ec <__divdi3+0x300>
80001338:	00e657b3          	srl	a5,a2,a4
8000133c:	006696b3          	sll	a3,a3,t1
80001340:	00d7e6b3          	or	a3,a5,a3
80001344:	00e5d533          	srl	a0,a1,a4
80001348:	006597b3          	sll	a5,a1,t1
8000134c:	00ee5733          	srl	a4,t3,a4
80001350:	0106df13          	srli	t5,a3,0x10
80001354:	00f765b3          	or	a1,a4,a5
80001358:	03e57733          	remu	a4,a0,t5
8000135c:	01069e93          	slli	t4,a3,0x10
80001360:	010ede93          	srli	t4,t4,0x10
80001364:	0105d793          	srli	a5,a1,0x10
80001368:	006618b3          	sll	a7,a2,t1
8000136c:	03e55533          	divu	a0,a0,t5
80001370:	01071713          	slli	a4,a4,0x10
80001374:	00f767b3          	or	a5,a4,a5
80001378:	02ae8fb3          	mul	t6,t4,a0
8000137c:	00050613          	mv	a2,a0
80001380:	01f7fe63          	bgeu	a5,t6,8000139c <__divdi3+0x3b0>
80001384:	00d787b3          	add	a5,a5,a3
80001388:	fff50613          	addi	a2,a0,-1
8000138c:	00d7e863          	bltu	a5,a3,8000139c <__divdi3+0x3b0>
80001390:	01f7f663          	bgeu	a5,t6,8000139c <__divdi3+0x3b0>
80001394:	ffe50613          	addi	a2,a0,-2
80001398:	00d787b3          	add	a5,a5,a3
8000139c:	41f787b3          	sub	a5,a5,t6
800013a0:	03e7f733          	remu	a4,a5,t5
800013a4:	01059593          	slli	a1,a1,0x10
800013a8:	0105d593          	srli	a1,a1,0x10
800013ac:	03e7d7b3          	divu	a5,a5,t5
800013b0:	01071713          	slli	a4,a4,0x10
800013b4:	00b76733          	or	a4,a4,a1
800013b8:	02fe8eb3          	mul	t4,t4,a5
800013bc:	00078593          	mv	a1,a5
800013c0:	01d77e63          	bgeu	a4,t4,800013dc <__divdi3+0x3f0>
800013c4:	00d70733          	add	a4,a4,a3
800013c8:	fff78593          	addi	a1,a5,-1 # ffff <__heap_size-0x1ffe0001>
800013cc:	00d76863          	bltu	a4,a3,800013dc <__divdi3+0x3f0>
800013d0:	01d77663          	bgeu	a4,t4,800013dc <__divdi3+0x3f0>
800013d4:	ffe78593          	addi	a1,a5,-2
800013d8:	00d70733          	add	a4,a4,a3
800013dc:	01061513          	slli	a0,a2,0x10
800013e0:	00010f37          	lui	t5,0x10
800013e4:	00b56533          	or	a0,a0,a1
800013e8:	ffff0693          	addi	a3,t5,-1 # ffff <__heap_size-0x1ffe0001>
800013ec:	00d575b3          	and	a1,a0,a3
800013f0:	01055613          	srli	a2,a0,0x10
800013f4:	00d8f6b3          	and	a3,a7,a3
800013f8:	0108d893          	srli	a7,a7,0x10
800013fc:	41d70733          	sub	a4,a4,t4
80001400:	02d58eb3          	mul	t4,a1,a3
80001404:	02d606b3          	mul	a3,a2,a3
80001408:	010ed793          	srli	a5,t4,0x10
8000140c:	031585b3          	mul	a1,a1,a7
80001410:	00d585b3          	add	a1,a1,a3
80001414:	00b787b3          	add	a5,a5,a1
80001418:	03160633          	mul	a2,a2,a7
8000141c:	00d7f463          	bgeu	a5,a3,80001424 <__divdi3+0x438>
80001420:	01e60633          	add	a2,a2,t5
80001424:	0107d693          	srli	a3,a5,0x10
80001428:	00c68633          	add	a2,a3,a2
8000142c:	02c76663          	bltu	a4,a2,80001458 <__divdi3+0x46c>
80001430:	cec710e3          	bne	a4,a2,80001110 <__divdi3+0x124>
80001434:	00010737          	lui	a4,0x10
80001438:	fff70713          	addi	a4,a4,-1 # ffff <__heap_size-0x1ffe0001>
8000143c:	00e7f7b3          	and	a5,a5,a4
80001440:	01079793          	slli	a5,a5,0x10
80001444:	00eefeb3          	and	t4,t4,a4
80001448:	006e1e33          	sll	t3,t3,t1
8000144c:	01d787b3          	add	a5,a5,t4
80001450:	00000313          	li	t1,0
80001454:	dafe72e3          	bgeu	t3,a5,800011f8 <__divdi3+0x20c>
80001458:	fff50513          	addi	a0,a0,-1
8000145c:	cb5ff06f          	j	80001110 <__divdi3+0x124>
80001460:	00000313          	li	t1,0
80001464:	00000513          	li	a0,0
80001468:	d91ff06f          	j	800011f8 <__divdi3+0x20c>

8000146c <__adddf3>:
8000146c:	00100837          	lui	a6,0x100
80001470:	fff80813          	addi	a6,a6,-1 # fffff <__heap_size-0x1fef0001>
80001474:	fe010113          	addi	sp,sp,-32
80001478:	00b877b3          	and	a5,a6,a1
8000147c:	0145d713          	srli	a4,a1,0x14
80001480:	00d87833          	and	a6,a6,a3
80001484:	0146d313          	srli	t1,a3,0x14
80001488:	00812c23          	sw	s0,24(sp)
8000148c:	00379793          	slli	a5,a5,0x3
80001490:	7ff77413          	andi	s0,a4,2047
80001494:	01d55713          	srli	a4,a0,0x1d
80001498:	00381813          	slli	a6,a6,0x3
8000149c:	00912a23          	sw	s1,20(sp)
800014a0:	00f767b3          	or	a5,a4,a5
800014a4:	01f5d493          	srli	s1,a1,0x1f
800014a8:	01d65713          	srli	a4,a2,0x1d
800014ac:	7ff37313          	andi	t1,t1,2047
800014b0:	00112e23          	sw	ra,28(sp)
800014b4:	01212823          	sw	s2,16(sp)
800014b8:	01312623          	sw	s3,12(sp)
800014bc:	01f6d693          	srli	a3,a3,0x1f
800014c0:	01076733          	or	a4,a4,a6
800014c4:	00351593          	slli	a1,a0,0x3
800014c8:	00361613          	slli	a2,a2,0x3
800014cc:	40640833          	sub	a6,s0,t1
800014d0:	2cd49863          	bne	s1,a3,800017a0 <__adddf3+0x334>
800014d4:	13005063          	blez	a6,800015f4 <__adddf3+0x188>
800014d8:	04031063          	bnez	t1,80001518 <__adddf3+0xac>
800014dc:	00c766b3          	or	a3,a4,a2
800014e0:	70068c63          	beqz	a3,80001bf8 <__adddf3+0x78c>
800014e4:	fff80513          	addi	a0,a6,-1
800014e8:	02051063          	bnez	a0,80001508 <__adddf3+0x9c>
800014ec:	00c58633          	add	a2,a1,a2
800014f0:	00b63533          	sltu	a0,a2,a1
800014f4:	00e787b3          	add	a5,a5,a4
800014f8:	00a787b3          	add	a5,a5,a0
800014fc:	00060593          	mv	a1,a2
80001500:	00100413          	li	s0,1
80001504:	0700006f          	j	80001574 <__adddf3+0x108>
80001508:	7ff00693          	li	a3,2047
8000150c:	02d81063          	bne	a6,a3,8000152c <__adddf3+0xc0>
80001510:	7ff00413          	li	s0,2047
80001514:	2140006f          	j	80001728 <__adddf3+0x2bc>
80001518:	7ff00693          	li	a3,2047
8000151c:	20d40663          	beq	s0,a3,80001728 <__adddf3+0x2bc>
80001520:	008006b7          	lui	a3,0x800
80001524:	00d76733          	or	a4,a4,a3
80001528:	00080513          	mv	a0,a6
8000152c:	03800693          	li	a3,56
80001530:	0aa6cc63          	blt	a3,a0,800015e8 <__adddf3+0x17c>
80001534:	01f00693          	li	a3,31
80001538:	06a6ce63          	blt	a3,a0,800015b4 <__adddf3+0x148>
8000153c:	02000813          	li	a6,32
80001540:	40a80833          	sub	a6,a6,a0
80001544:	010716b3          	sll	a3,a4,a6
80001548:	00a658b3          	srl	a7,a2,a0
8000154c:	01061633          	sll	a2,a2,a6
80001550:	0116e6b3          	or	a3,a3,a7
80001554:	00c03633          	snez	a2,a2
80001558:	00c6e633          	or	a2,a3,a2
8000155c:	00a75733          	srl	a4,a4,a0
80001560:	00b60633          	add	a2,a2,a1
80001564:	00b63533          	sltu	a0,a2,a1
80001568:	00f70733          	add	a4,a4,a5
8000156c:	00a707b3          	add	a5,a4,a0
80001570:	00060593          	mv	a1,a2
80001574:	00800737          	lui	a4,0x800
80001578:	00e7f733          	and	a4,a5,a4
8000157c:	1a070663          	beqz	a4,80001728 <__adddf3+0x2bc>
80001580:	00140413          	addi	s0,s0,1
80001584:	7ff00713          	li	a4,2047
80001588:	5ce40a63          	beq	s0,a4,80001b5c <__adddf3+0x6f0>
8000158c:	ff800737          	lui	a4,0xff800
80001590:	fff70713          	addi	a4,a4,-1 # ff7fffff <__stack_top+0x3f80ffff>
80001594:	00e7f7b3          	and	a5,a5,a4
80001598:	0015f513          	andi	a0,a1,1
8000159c:	0015d713          	srli	a4,a1,0x1
800015a0:	00a76533          	or	a0,a4,a0
800015a4:	01f79593          	slli	a1,a5,0x1f
800015a8:	00a5e5b3          	or	a1,a1,a0
800015ac:	0017d793          	srli	a5,a5,0x1
800015b0:	1780006f          	j	80001728 <__adddf3+0x2bc>
800015b4:	fe050693          	addi	a3,a0,-32
800015b8:	02000893          	li	a7,32
800015bc:	00d756b3          	srl	a3,a4,a3
800015c0:	00000813          	li	a6,0
800015c4:	01150863          	beq	a0,a7,800015d4 <__adddf3+0x168>
800015c8:	04000813          	li	a6,64
800015cc:	40a80533          	sub	a0,a6,a0
800015d0:	00a71833          	sll	a6,a4,a0
800015d4:	00c86633          	or	a2,a6,a2
800015d8:	00c03633          	snez	a2,a2
800015dc:	00c6e633          	or	a2,a3,a2
800015e0:	00000713          	li	a4,0
800015e4:	f7dff06f          	j	80001560 <__adddf3+0xf4>
800015e8:	00c76633          	or	a2,a4,a2
800015ec:	00c03633          	snez	a2,a2
800015f0:	ff1ff06f          	j	800015e0 <__adddf3+0x174>
800015f4:	0e080263          	beqz	a6,800016d8 <__adddf3+0x26c>
800015f8:	40830533          	sub	a0,t1,s0
800015fc:	02041e63          	bnez	s0,80001638 <__adddf3+0x1cc>
80001600:	00b7e6b3          	or	a3,a5,a1
80001604:	52068c63          	beqz	a3,80001b3c <__adddf3+0x6d0>
80001608:	fff50693          	addi	a3,a0,-1
8000160c:	00069c63          	bnez	a3,80001624 <__adddf3+0x1b8>
80001610:	00c585b3          	add	a1,a1,a2
80001614:	00e787b3          	add	a5,a5,a4
80001618:	00c5b633          	sltu	a2,a1,a2
8000161c:	00c787b3          	add	a5,a5,a2
80001620:	ee1ff06f          	j	80001500 <__adddf3+0x94>
80001624:	7ff00813          	li	a6,2047
80001628:	03051263          	bne	a0,a6,8000164c <__adddf3+0x1e0>
8000162c:	00070793          	mv	a5,a4
80001630:	00060593          	mv	a1,a2
80001634:	eddff06f          	j	80001510 <__adddf3+0xa4>
80001638:	7ff00693          	li	a3,2047
8000163c:	fed308e3          	beq	t1,a3,8000162c <__adddf3+0x1c0>
80001640:	008006b7          	lui	a3,0x800
80001644:	00d7e7b3          	or	a5,a5,a3
80001648:	00050693          	mv	a3,a0
8000164c:	03800513          	li	a0,56
80001650:	06d54e63          	blt	a0,a3,800016cc <__adddf3+0x260>
80001654:	01f00513          	li	a0,31
80001658:	04d54063          	blt	a0,a3,80001698 <__adddf3+0x22c>
8000165c:	02000813          	li	a6,32
80001660:	40d80833          	sub	a6,a6,a3
80001664:	01079533          	sll	a0,a5,a6
80001668:	00d5d8b3          	srl	a7,a1,a3
8000166c:	010595b3          	sll	a1,a1,a6
80001670:	01156533          	or	a0,a0,a7
80001674:	00b035b3          	snez	a1,a1
80001678:	00b56533          	or	a0,a0,a1
8000167c:	00d7d7b3          	srl	a5,a5,a3
80001680:	00c505b3          	add	a1,a0,a2
80001684:	00e787b3          	add	a5,a5,a4
80001688:	00c5b633          	sltu	a2,a1,a2
8000168c:	00c787b3          	add	a5,a5,a2
80001690:	00030413          	mv	s0,t1
80001694:	ee1ff06f          	j	80001574 <__adddf3+0x108>
80001698:	fe068513          	addi	a0,a3,-32 # 7fffe0 <__heap_size-0x1f7f0020>
8000169c:	02000893          	li	a7,32
800016a0:	00a7d833          	srl	a6,a5,a0
800016a4:	00000513          	li	a0,0
800016a8:	01168863          	beq	a3,a7,800016b8 <__adddf3+0x24c>
800016ac:	04000513          	li	a0,64
800016b0:	40d50533          	sub	a0,a0,a3
800016b4:	00a79533          	sll	a0,a5,a0
800016b8:	00b56533          	or	a0,a0,a1
800016bc:	00a03533          	snez	a0,a0
800016c0:	00a86533          	or	a0,a6,a0
800016c4:	00000793          	li	a5,0
800016c8:	fb9ff06f          	j	80001680 <__adddf3+0x214>
800016cc:	00b7e533          	or	a0,a5,a1
800016d0:	00a03533          	snez	a0,a0
800016d4:	ff1ff06f          	j	800016c4 <__adddf3+0x258>
800016d8:	00140693          	addi	a3,s0,1
800016dc:	7fe6f513          	andi	a0,a3,2046
800016e0:	08051863          	bnez	a0,80001770 <__adddf3+0x304>
800016e4:	00b7e6b3          	or	a3,a5,a1
800016e8:	06041463          	bnez	s0,80001750 <__adddf3+0x2e4>
800016ec:	46068063          	beqz	a3,80001b4c <__adddf3+0x6e0>
800016f0:	00c766b3          	or	a3,a4,a2
800016f4:	02068a63          	beqz	a3,80001728 <__adddf3+0x2bc>
800016f8:	00c58633          	add	a2,a1,a2
800016fc:	00e787b3          	add	a5,a5,a4
80001700:	00b63533          	sltu	a0,a2,a1
80001704:	00a787b3          	add	a5,a5,a0
80001708:	00800737          	lui	a4,0x800
8000170c:	00e7f733          	and	a4,a5,a4
80001710:	00060593          	mv	a1,a2
80001714:	00070a63          	beqz	a4,80001728 <__adddf3+0x2bc>
80001718:	ff800737          	lui	a4,0xff800
8000171c:	fff70713          	addi	a4,a4,-1 # ff7fffff <__stack_top+0x3f80ffff>
80001720:	00e7f7b3          	and	a5,a5,a4
80001724:	00100413          	li	s0,1
80001728:	0075f713          	andi	a4,a1,7
8000172c:	42070c63          	beqz	a4,80001b64 <__adddf3+0x6f8>
80001730:	00f5f713          	andi	a4,a1,15
80001734:	00400693          	li	a3,4
80001738:	42d70663          	beq	a4,a3,80001b64 <__adddf3+0x6f8>
8000173c:	00458713          	addi	a4,a1,4
80001740:	00b73533          	sltu	a0,a4,a1
80001744:	00a787b3          	add	a5,a5,a0
80001748:	00070593          	mv	a1,a4
8000174c:	4180006f          	j	80001b64 <__adddf3+0x6f8>
80001750:	ec068ee3          	beqz	a3,8000162c <__adddf3+0x1c0>
80001754:	00c76633          	or	a2,a4,a2
80001758:	da060ce3          	beqz	a2,80001510 <__adddf3+0xa4>
8000175c:	00000493          	li	s1,0
80001760:	004007b7          	lui	a5,0x400
80001764:	00000593          	li	a1,0
80001768:	7ff00413          	li	s0,2047
8000176c:	3f80006f          	j	80001b64 <__adddf3+0x6f8>
80001770:	7ff00513          	li	a0,2047
80001774:	3ea68263          	beq	a3,a0,80001b58 <__adddf3+0x6ec>
80001778:	00c58633          	add	a2,a1,a2
8000177c:	00b63533          	sltu	a0,a2,a1
80001780:	00e787b3          	add	a5,a5,a4
80001784:	00a787b3          	add	a5,a5,a0
80001788:	01f79513          	slli	a0,a5,0x1f
8000178c:	00165613          	srli	a2,a2,0x1
80001790:	00c565b3          	or	a1,a0,a2
80001794:	0017d793          	srli	a5,a5,0x1
80001798:	00068413          	mv	s0,a3
8000179c:	f8dff06f          	j	80001728 <__adddf3+0x2bc>
800017a0:	0f005c63          	blez	a6,80001898 <__adddf3+0x42c>
800017a4:	08031e63          	bnez	t1,80001840 <__adddf3+0x3d4>
800017a8:	00c766b3          	or	a3,a4,a2
800017ac:	44068663          	beqz	a3,80001bf8 <__adddf3+0x78c>
800017b0:	fff80513          	addi	a0,a6,-1
800017b4:	02051063          	bnez	a0,800017d4 <__adddf3+0x368>
800017b8:	40c58633          	sub	a2,a1,a2
800017bc:	00c5b533          	sltu	a0,a1,a2
800017c0:	40e787b3          	sub	a5,a5,a4
800017c4:	40a787b3          	sub	a5,a5,a0
800017c8:	00060593          	mv	a1,a2
800017cc:	00100413          	li	s0,1
800017d0:	0540006f          	j	80001824 <__adddf3+0x3b8>
800017d4:	7ff00693          	li	a3,2047
800017d8:	d2d80ce3          	beq	a6,a3,80001510 <__adddf3+0xa4>
800017dc:	03800693          	li	a3,56
800017e0:	0aa6c663          	blt	a3,a0,8000188c <__adddf3+0x420>
800017e4:	01f00693          	li	a3,31
800017e8:	06a6c863          	blt	a3,a0,80001858 <__adddf3+0x3ec>
800017ec:	02000813          	li	a6,32
800017f0:	40a80833          	sub	a6,a6,a0
800017f4:	010716b3          	sll	a3,a4,a6
800017f8:	00a658b3          	srl	a7,a2,a0
800017fc:	01061633          	sll	a2,a2,a6
80001800:	0116e6b3          	or	a3,a3,a7
80001804:	00c03633          	snez	a2,a2
80001808:	00c6e633          	or	a2,a3,a2
8000180c:	00a75733          	srl	a4,a4,a0
80001810:	40c58633          	sub	a2,a1,a2
80001814:	00c5b533          	sltu	a0,a1,a2
80001818:	40e78733          	sub	a4,a5,a4
8000181c:	40a707b3          	sub	a5,a4,a0
80001820:	00060593          	mv	a1,a2
80001824:	00800937          	lui	s2,0x800
80001828:	0127f733          	and	a4,a5,s2
8000182c:	ee070ee3          	beqz	a4,80001728 <__adddf3+0x2bc>
80001830:	fff90913          	addi	s2,s2,-1 # 7fffff <__heap_size-0x1f7f0001>
80001834:	0127f933          	and	s2,a5,s2
80001838:	00058993          	mv	s3,a1
8000183c:	2140006f          	j	80001a50 <__adddf3+0x5e4>
80001840:	7ff00693          	li	a3,2047
80001844:	eed402e3          	beq	s0,a3,80001728 <__adddf3+0x2bc>
80001848:	008006b7          	lui	a3,0x800
8000184c:	00d76733          	or	a4,a4,a3
80001850:	00080513          	mv	a0,a6
80001854:	f89ff06f          	j	800017dc <__adddf3+0x370>
80001858:	fe050693          	addi	a3,a0,-32
8000185c:	02000893          	li	a7,32
80001860:	00d756b3          	srl	a3,a4,a3
80001864:	00000813          	li	a6,0
80001868:	01150863          	beq	a0,a7,80001878 <__adddf3+0x40c>
8000186c:	04000813          	li	a6,64
80001870:	40a80533          	sub	a0,a6,a0
80001874:	00a71833          	sll	a6,a4,a0
80001878:	00c86633          	or	a2,a6,a2
8000187c:	00c03633          	snez	a2,a2
80001880:	00c6e633          	or	a2,a3,a2
80001884:	00000713          	li	a4,0
80001888:	f89ff06f          	j	80001810 <__adddf3+0x3a4>
8000188c:	00c76633          	or	a2,a4,a2
80001890:	00c03633          	snez	a2,a2
80001894:	ff1ff06f          	j	80001884 <__adddf3+0x418>
80001898:	0e080863          	beqz	a6,80001988 <__adddf3+0x51c>
8000189c:	40830533          	sub	a0,t1,s0
800018a0:	04041263          	bnez	s0,800018e4 <__adddf3+0x478>
800018a4:	00b7e833          	or	a6,a5,a1
800018a8:	34080c63          	beqz	a6,80001c00 <__adddf3+0x794>
800018ac:	fff50813          	addi	a6,a0,-1
800018b0:	00081e63          	bnez	a6,800018cc <__adddf3+0x460>
800018b4:	40b605b3          	sub	a1,a2,a1
800018b8:	40f707b3          	sub	a5,a4,a5
800018bc:	00b63633          	sltu	a2,a2,a1
800018c0:	40c787b3          	sub	a5,a5,a2
800018c4:	00068493          	mv	s1,a3
800018c8:	f05ff06f          	j	800017cc <__adddf3+0x360>
800018cc:	7ff00893          	li	a7,2047
800018d0:	03151463          	bne	a0,a7,800018f8 <__adddf3+0x48c>
800018d4:	00070793          	mv	a5,a4
800018d8:	00060593          	mv	a1,a2
800018dc:	7ff00413          	li	s0,2047
800018e0:	0d00006f          	j	800019b0 <__adddf3+0x544>
800018e4:	7ff00813          	li	a6,2047
800018e8:	ff0306e3          	beq	t1,a6,800018d4 <__adddf3+0x468>
800018ec:	00800837          	lui	a6,0x800
800018f0:	0107e7b3          	or	a5,a5,a6
800018f4:	00050813          	mv	a6,a0
800018f8:	03800513          	li	a0,56
800018fc:	09054063          	blt	a0,a6,8000197c <__adddf3+0x510>
80001900:	01f00513          	li	a0,31
80001904:	05054263          	blt	a0,a6,80001948 <__adddf3+0x4dc>
80001908:	02000893          	li	a7,32
8000190c:	410888b3          	sub	a7,a7,a6
80001910:	01179533          	sll	a0,a5,a7
80001914:	0105de33          	srl	t3,a1,a6
80001918:	011595b3          	sll	a1,a1,a7
8000191c:	01c56533          	or	a0,a0,t3
80001920:	00b035b3          	snez	a1,a1
80001924:	00b56533          	or	a0,a0,a1
80001928:	0107d7b3          	srl	a5,a5,a6
8000192c:	40a605b3          	sub	a1,a2,a0
80001930:	40f707b3          	sub	a5,a4,a5
80001934:	00b63633          	sltu	a2,a2,a1
80001938:	40c787b3          	sub	a5,a5,a2
8000193c:	00030413          	mv	s0,t1
80001940:	00068493          	mv	s1,a3
80001944:	ee1ff06f          	j	80001824 <__adddf3+0x3b8>
80001948:	fe080513          	addi	a0,a6,-32 # 7fffe0 <__heap_size-0x1f7f0020>
8000194c:	02000e13          	li	t3,32
80001950:	00a7d8b3          	srl	a7,a5,a0
80001954:	00000513          	li	a0,0
80001958:	01c80863          	beq	a6,t3,80001968 <__adddf3+0x4fc>
8000195c:	04000513          	li	a0,64
80001960:	41050533          	sub	a0,a0,a6
80001964:	00a79533          	sll	a0,a5,a0
80001968:	00b56533          	or	a0,a0,a1
8000196c:	00a03533          	snez	a0,a0
80001970:	00a8e533          	or	a0,a7,a0
80001974:	00000793          	li	a5,0
80001978:	fb5ff06f          	j	8000192c <__adddf3+0x4c0>
8000197c:	00b7e533          	or	a0,a5,a1
80001980:	00a03533          	snez	a0,a0
80001984:	ff1ff06f          	j	80001974 <__adddf3+0x508>
80001988:	00140513          	addi	a0,s0,1
8000198c:	7fe57513          	andi	a0,a0,2046
80001990:	08051863          	bnez	a0,80001a20 <__adddf3+0x5b4>
80001994:	00b7e833          	or	a6,a5,a1
80001998:	00c76533          	or	a0,a4,a2
8000199c:	06041263          	bnez	s0,80001a00 <__adddf3+0x594>
800019a0:	00081c63          	bnez	a6,800019b8 <__adddf3+0x54c>
800019a4:	26050663          	beqz	a0,80001c10 <__adddf3+0x7a4>
800019a8:	00070793          	mv	a5,a4
800019ac:	00060593          	mv	a1,a2
800019b0:	00068493          	mv	s1,a3
800019b4:	d75ff06f          	j	80001728 <__adddf3+0x2bc>
800019b8:	d60508e3          	beqz	a0,80001728 <__adddf3+0x2bc>
800019bc:	40c58833          	sub	a6,a1,a2
800019c0:	0105b8b3          	sltu	a7,a1,a6
800019c4:	40e78533          	sub	a0,a5,a4
800019c8:	41150533          	sub	a0,a0,a7
800019cc:	008008b7          	lui	a7,0x800
800019d0:	011578b3          	and	a7,a0,a7
800019d4:	00088c63          	beqz	a7,800019ec <__adddf3+0x580>
800019d8:	40b605b3          	sub	a1,a2,a1
800019dc:	40f707b3          	sub	a5,a4,a5
800019e0:	00b63633          	sltu	a2,a2,a1
800019e4:	40c787b3          	sub	a5,a5,a2
800019e8:	fc9ff06f          	j	800019b0 <__adddf3+0x544>
800019ec:	00a865b3          	or	a1,a6,a0
800019f0:	22058863          	beqz	a1,80001c20 <__adddf3+0x7b4>
800019f4:	00050793          	mv	a5,a0
800019f8:	00080593          	mv	a1,a6
800019fc:	d2dff06f          	j	80001728 <__adddf3+0x2bc>
80001a00:	00081c63          	bnez	a6,80001a18 <__adddf3+0x5ac>
80001a04:	22050263          	beqz	a0,80001c28 <__adddf3+0x7bc>
80001a08:	00070793          	mv	a5,a4
80001a0c:	00060593          	mv	a1,a2
80001a10:	00068493          	mv	s1,a3
80001a14:	afdff06f          	j	80001510 <__adddf3+0xa4>
80001a18:	ae050ce3          	beqz	a0,80001510 <__adddf3+0xa4>
80001a1c:	d41ff06f          	j	8000175c <__adddf3+0x2f0>
80001a20:	40c589b3          	sub	s3,a1,a2
80001a24:	0135b533          	sltu	a0,a1,s3
80001a28:	40e78933          	sub	s2,a5,a4
80001a2c:	40a90933          	sub	s2,s2,a0
80001a30:	00800537          	lui	a0,0x800
80001a34:	00a97533          	and	a0,s2,a0
80001a38:	08050463          	beqz	a0,80001ac0 <__adddf3+0x654>
80001a3c:	40b609b3          	sub	s3,a2,a1
80001a40:	40f707b3          	sub	a5,a4,a5
80001a44:	01363633          	sltu	a2,a2,s3
80001a48:	40c78933          	sub	s2,a5,a2
80001a4c:	00068493          	mv	s1,a3
80001a50:	08090263          	beqz	s2,80001ad4 <__adddf3+0x668>
80001a54:	00090513          	mv	a0,s2
80001a58:	1ac010ef          	jal	ra,80002c04 <__clzsi2>
80001a5c:	ff850713          	addi	a4,a0,-8 # 7ffff8 <__heap_size-0x1f7f0008>
80001a60:	01f00793          	li	a5,31
80001a64:	08e7c063          	blt	a5,a4,80001ae4 <__adddf3+0x678>
80001a68:	02000793          	li	a5,32
80001a6c:	40e787b3          	sub	a5,a5,a4
80001a70:	00e91933          	sll	s2,s2,a4
80001a74:	00f9d7b3          	srl	a5,s3,a5
80001a78:	0127e7b3          	or	a5,a5,s2
80001a7c:	00e995b3          	sll	a1,s3,a4
80001a80:	0a874463          	blt	a4,s0,80001b28 <__adddf3+0x6bc>
80001a84:	40870733          	sub	a4,a4,s0
80001a88:	00170693          	addi	a3,a4,1
80001a8c:	01f00613          	li	a2,31
80001a90:	06d64263          	blt	a2,a3,80001af4 <__adddf3+0x688>
80001a94:	02000713          	li	a4,32
80001a98:	40d70733          	sub	a4,a4,a3
80001a9c:	00e79633          	sll	a2,a5,a4
80001aa0:	00d5d533          	srl	a0,a1,a3
80001aa4:	00e595b3          	sll	a1,a1,a4
80001aa8:	00a66633          	or	a2,a2,a0
80001aac:	00b035b3          	snez	a1,a1
80001ab0:	00b665b3          	or	a1,a2,a1
80001ab4:	00d7d7b3          	srl	a5,a5,a3
80001ab8:	00000413          	li	s0,0
80001abc:	c6dff06f          	j	80001728 <__adddf3+0x2bc>
80001ac0:	0129e5b3          	or	a1,s3,s2
80001ac4:	f80596e3          	bnez	a1,80001a50 <__adddf3+0x5e4>
80001ac8:	00000793          	li	a5,0
80001acc:	00000413          	li	s0,0
80001ad0:	1480006f          	j	80001c18 <__adddf3+0x7ac>
80001ad4:	00098513          	mv	a0,s3
80001ad8:	12c010ef          	jal	ra,80002c04 <__clzsi2>
80001adc:	02050513          	addi	a0,a0,32
80001ae0:	f7dff06f          	j	80001a5c <__adddf3+0x5f0>
80001ae4:	fd850793          	addi	a5,a0,-40
80001ae8:	00f997b3          	sll	a5,s3,a5
80001aec:	00000593          	li	a1,0
80001af0:	f91ff06f          	j	80001a80 <__adddf3+0x614>
80001af4:	fe170713          	addi	a4,a4,-31
80001af8:	02000613          	li	a2,32
80001afc:	00e7d733          	srl	a4,a5,a4
80001b00:	00000513          	li	a0,0
80001b04:	00c68863          	beq	a3,a2,80001b14 <__adddf3+0x6a8>
80001b08:	04000513          	li	a0,64
80001b0c:	40d50533          	sub	a0,a0,a3
80001b10:	00a79533          	sll	a0,a5,a0
80001b14:	00a5e533          	or	a0,a1,a0
80001b18:	00a03533          	snez	a0,a0
80001b1c:	00a765b3          	or	a1,a4,a0
80001b20:	00000793          	li	a5,0
80001b24:	f95ff06f          	j	80001ab8 <__adddf3+0x64c>
80001b28:	40e40433          	sub	s0,s0,a4
80001b2c:	ff800737          	lui	a4,0xff800
80001b30:	fff70713          	addi	a4,a4,-1 # ff7fffff <__stack_top+0x3f80ffff>
80001b34:	00e7f7b3          	and	a5,a5,a4
80001b38:	bf1ff06f          	j	80001728 <__adddf3+0x2bc>
80001b3c:	00070793          	mv	a5,a4
80001b40:	00060593          	mv	a1,a2
80001b44:	00050413          	mv	s0,a0
80001b48:	be1ff06f          	j	80001728 <__adddf3+0x2bc>
80001b4c:	00070793          	mv	a5,a4
80001b50:	00060593          	mv	a1,a2
80001b54:	bd5ff06f          	j	80001728 <__adddf3+0x2bc>
80001b58:	7ff00413          	li	s0,2047
80001b5c:	00000793          	li	a5,0
80001b60:	00000593          	li	a1,0
80001b64:	00800737          	lui	a4,0x800
80001b68:	00e7f733          	and	a4,a5,a4
80001b6c:	00070e63          	beqz	a4,80001b88 <__adddf3+0x71c>
80001b70:	00140413          	addi	s0,s0,1
80001b74:	7ff00713          	li	a4,2047
80001b78:	0ce40063          	beq	s0,a4,80001c38 <__adddf3+0x7cc>
80001b7c:	ff800737          	lui	a4,0xff800
80001b80:	fff70713          	addi	a4,a4,-1 # ff7fffff <__stack_top+0x3f80ffff>
80001b84:	00e7f7b3          	and	a5,a5,a4
80001b88:	01d79713          	slli	a4,a5,0x1d
80001b8c:	0035d513          	srli	a0,a1,0x3
80001b90:	00a76533          	or	a0,a4,a0
80001b94:	7ff00713          	li	a4,2047
80001b98:	0037d793          	srli	a5,a5,0x3
80001b9c:	00e41e63          	bne	s0,a4,80001bb8 <__adddf3+0x74c>
80001ba0:	00f56533          	or	a0,a0,a5
80001ba4:	00000793          	li	a5,0
80001ba8:	00050863          	beqz	a0,80001bb8 <__adddf3+0x74c>
80001bac:	000807b7          	lui	a5,0x80
80001bb0:	00000513          	li	a0,0
80001bb4:	00000493          	li	s1,0
80001bb8:	01441713          	slli	a4,s0,0x14
80001bbc:	7ff006b7          	lui	a3,0x7ff00
80001bc0:	00c79793          	slli	a5,a5,0xc
80001bc4:	01c12083          	lw	ra,28(sp)
80001bc8:	01812403          	lw	s0,24(sp)
80001bcc:	00d77733          	and	a4,a4,a3
80001bd0:	00c7d793          	srli	a5,a5,0xc
80001bd4:	01f49493          	slli	s1,s1,0x1f
80001bd8:	00f767b3          	or	a5,a4,a5
80001bdc:	0097e733          	or	a4,a5,s1
80001be0:	01012903          	lw	s2,16(sp)
80001be4:	01412483          	lw	s1,20(sp)
80001be8:	00c12983          	lw	s3,12(sp)
80001bec:	00070593          	mv	a1,a4
80001bf0:	02010113          	addi	sp,sp,32
80001bf4:	00008067          	ret
80001bf8:	00080413          	mv	s0,a6
80001bfc:	b2dff06f          	j	80001728 <__adddf3+0x2bc>
80001c00:	00070793          	mv	a5,a4
80001c04:	00060593          	mv	a1,a2
80001c08:	00050413          	mv	s0,a0
80001c0c:	da5ff06f          	j	800019b0 <__adddf3+0x544>
80001c10:	00000793          	li	a5,0
80001c14:	00000593          	li	a1,0
80001c18:	00000493          	li	s1,0
80001c1c:	f49ff06f          	j	80001b64 <__adddf3+0x6f8>
80001c20:	00000793          	li	a5,0
80001c24:	ff5ff06f          	j	80001c18 <__adddf3+0x7ac>
80001c28:	00000593          	li	a1,0
80001c2c:	00000493          	li	s1,0
80001c30:	004007b7          	lui	a5,0x400
80001c34:	b35ff06f          	j	80001768 <__adddf3+0x2fc>
80001c38:	00000793          	li	a5,0
80001c3c:	00000593          	li	a1,0
80001c40:	f49ff06f          	j	80001b88 <__adddf3+0x71c>

80001c44 <__ledf2>:
80001c44:	00100737          	lui	a4,0x100
80001c48:	fff70713          	addi	a4,a4,-1 # fffff <__heap_size-0x1fef0001>
80001c4c:	0145d813          	srli	a6,a1,0x14
80001c50:	00b778b3          	and	a7,a4,a1
80001c54:	00050793          	mv	a5,a0
80001c58:	00050313          	mv	t1,a0
80001c5c:	7ff87813          	andi	a6,a6,2047
80001c60:	01f5d513          	srli	a0,a1,0x1f
80001c64:	7ff00e93          	li	t4,2047
80001c68:	0146d593          	srli	a1,a3,0x14
80001c6c:	00d77733          	and	a4,a4,a3
80001c70:	00060e13          	mv	t3,a2
80001c74:	7ff5f593          	andi	a1,a1,2047
80001c78:	01f6d693          	srli	a3,a3,0x1f
80001c7c:	01d81a63          	bne	a6,t4,80001c90 <__ledf2+0x4c>
80001c80:	00f8eeb3          	or	t4,a7,a5
80001c84:	080e8a63          	beqz	t4,80001d18 <__ledf2+0xd4>
80001c88:	00200513          	li	a0,2
80001c8c:	00008067          	ret
80001c90:	01d59663          	bne	a1,t4,80001c9c <__ledf2+0x58>
80001c94:	00c76eb3          	or	t4,a4,a2
80001c98:	fe0e98e3          	bnez	t4,80001c88 <__ledf2+0x44>
80001c9c:	08081063          	bnez	a6,80001d1c <__ledf2+0xd8>
80001ca0:	00f8e7b3          	or	a5,a7,a5
80001ca4:	0017b793          	seqz	a5,a5
80001ca8:	00059663          	bnez	a1,80001cb4 <__ledf2+0x70>
80001cac:	00c76633          	or	a2,a4,a2
80001cb0:	04060c63          	beqz	a2,80001d08 <__ledf2+0xc4>
80001cb4:	00079c63          	bnez	a5,80001ccc <__ledf2+0x88>
80001cb8:	00d51463          	bne	a0,a3,80001cc0 <__ledf2+0x7c>
80001cbc:	0305d063          	bge	a1,a6,80001cdc <__ledf2+0x98>
80001cc0:	04050063          	beqz	a0,80001d00 <__ledf2+0xbc>
80001cc4:	fff00513          	li	a0,-1
80001cc8:	00008067          	ret
80001ccc:	fff00513          	li	a0,-1
80001cd0:	00068a63          	beqz	a3,80001ce4 <__ledf2+0xa0>
80001cd4:	00068513          	mv	a0,a3
80001cd8:	00008067          	ret
80001cdc:	00b85663          	bge	a6,a1,80001ce8 <__ledf2+0xa4>
80001ce0:	fe0502e3          	beqz	a0,80001cc4 <__ledf2+0x80>
80001ce4:	00008067          	ret
80001ce8:	fd176ce3          	bltu	a4,a7,80001cc0 <__ledf2+0x7c>
80001cec:	02e89263          	bne	a7,a4,80001d10 <__ledf2+0xcc>
80001cf0:	fc6e68e3          	bltu	t3,t1,80001cc0 <__ledf2+0x7c>
80001cf4:	ffc366e3          	bltu	t1,t3,80001ce0 <__ledf2+0x9c>
80001cf8:	00000513          	li	a0,0
80001cfc:	00008067          	ret
80001d00:	00100513          	li	a0,1
80001d04:	00008067          	ret
80001d08:	fe0798e3          	bnez	a5,80001cf8 <__ledf2+0xb4>
80001d0c:	fb5ff06f          	j	80001cc0 <__ledf2+0x7c>
80001d10:	fce8e8e3          	bltu	a7,a4,80001ce0 <__ledf2+0x9c>
80001d14:	fe5ff06f          	j	80001cf8 <__ledf2+0xb4>
80001d18:	f7058ee3          	beq	a1,a6,80001c94 <__ledf2+0x50>
80001d1c:	f8059ee3          	bnez	a1,80001cb8 <__ledf2+0x74>
80001d20:	00000793          	li	a5,0
80001d24:	f89ff06f          	j	80001cac <__ledf2+0x68>

80001d28 <__muldf3>:
80001d28:	fd010113          	addi	sp,sp,-48
80001d2c:	01312e23          	sw	s3,28(sp)
80001d30:	0145d993          	srli	s3,a1,0x14
80001d34:	02812423          	sw	s0,40(sp)
80001d38:	02912223          	sw	s1,36(sp)
80001d3c:	01412c23          	sw	s4,24(sp)
80001d40:	01512a23          	sw	s5,20(sp)
80001d44:	01712623          	sw	s7,12(sp)
80001d48:	00c59493          	slli	s1,a1,0xc
80001d4c:	02112623          	sw	ra,44(sp)
80001d50:	03212023          	sw	s2,32(sp)
80001d54:	01612823          	sw	s6,16(sp)
80001d58:	7ff9f993          	andi	s3,s3,2047
80001d5c:	00050413          	mv	s0,a0
80001d60:	00060b93          	mv	s7,a2
80001d64:	00068a93          	mv	s5,a3
80001d68:	00c4d493          	srli	s1,s1,0xc
80001d6c:	01f5da13          	srli	s4,a1,0x1f
80001d70:	0a098263          	beqz	s3,80001e14 <__muldf3+0xec>
80001d74:	7ff00793          	li	a5,2047
80001d78:	10f98063          	beq	s3,a5,80001e78 <__muldf3+0x150>
80001d7c:	01d55793          	srli	a5,a0,0x1d
80001d80:	00349493          	slli	s1,s1,0x3
80001d84:	0097e4b3          	or	s1,a5,s1
80001d88:	008007b7          	lui	a5,0x800
80001d8c:	00f4e4b3          	or	s1,s1,a5
80001d90:	00351913          	slli	s2,a0,0x3
80001d94:	c0198993          	addi	s3,s3,-1023
80001d98:	00000b13          	li	s6,0
80001d9c:	014ad513          	srli	a0,s5,0x14
80001da0:	00ca9413          	slli	s0,s5,0xc
80001da4:	7ff57513          	andi	a0,a0,2047
80001da8:	00c45413          	srli	s0,s0,0xc
80001dac:	01fada93          	srli	s5,s5,0x1f
80001db0:	10050063          	beqz	a0,80001eb0 <__muldf3+0x188>
80001db4:	7ff00793          	li	a5,2047
80001db8:	16f50063          	beq	a0,a5,80001f18 <__muldf3+0x1f0>
80001dbc:	01dbd793          	srli	a5,s7,0x1d
80001dc0:	00341413          	slli	s0,s0,0x3
80001dc4:	0087e433          	or	s0,a5,s0
80001dc8:	008007b7          	lui	a5,0x800
80001dcc:	00f46433          	or	s0,s0,a5
80001dd0:	c0150513          	addi	a0,a0,-1023
80001dd4:	003b9793          	slli	a5,s7,0x3
80001dd8:	00000713          	li	a4,0
80001ddc:	002b1693          	slli	a3,s6,0x2
80001de0:	00e6e6b3          	or	a3,a3,a4
80001de4:	00a98533          	add	a0,s3,a0
80001de8:	fff68693          	addi	a3,a3,-1 # 7fefffff <__heap_size+0x5ff0ffff>
80001dec:	00e00813          	li	a6,14
80001df0:	015a4633          	xor	a2,s4,s5
80001df4:	00150593          	addi	a1,a0,1
80001df8:	14d86c63          	bltu	a6,a3,80001f50 <__muldf3+0x228>
80001dfc:	8000c537          	lui	a0,0x8000c
80001e00:	00269693          	slli	a3,a3,0x2
80001e04:	1f050513          	addi	a0,a0,496 # 8000c1f0 <__stack_top+0xc001c1f0>
80001e08:	00a686b3          	add	a3,a3,a0
80001e0c:	0006a683          	lw	a3,0(a3)
80001e10:	00068067          	jr	a3
80001e14:	00a4e933          	or	s2,s1,a0
80001e18:	06090c63          	beqz	s2,80001e90 <__muldf3+0x168>
80001e1c:	04048063          	beqz	s1,80001e5c <__muldf3+0x134>
80001e20:	00048513          	mv	a0,s1
80001e24:	5e1000ef          	jal	ra,80002c04 <__clzsi2>
80001e28:	ff550713          	addi	a4,a0,-11
80001e2c:	01c00793          	li	a5,28
80001e30:	02e7cc63          	blt	a5,a4,80001e68 <__muldf3+0x140>
80001e34:	01d00793          	li	a5,29
80001e38:	ff850913          	addi	s2,a0,-8
80001e3c:	40e787b3          	sub	a5,a5,a4
80001e40:	012494b3          	sll	s1,s1,s2
80001e44:	00f457b3          	srl	a5,s0,a5
80001e48:	0097e4b3          	or	s1,a5,s1
80001e4c:	01241933          	sll	s2,s0,s2
80001e50:	c0d00993          	li	s3,-1011
80001e54:	40a989b3          	sub	s3,s3,a0
80001e58:	f41ff06f          	j	80001d98 <__muldf3+0x70>
80001e5c:	5a9000ef          	jal	ra,80002c04 <__clzsi2>
80001e60:	02050513          	addi	a0,a0,32
80001e64:	fc5ff06f          	j	80001e28 <__muldf3+0x100>
80001e68:	fd850493          	addi	s1,a0,-40
80001e6c:	009414b3          	sll	s1,s0,s1
80001e70:	00000913          	li	s2,0
80001e74:	fddff06f          	j	80001e50 <__muldf3+0x128>
80001e78:	00a4e933          	or	s2,s1,a0
80001e7c:	02090263          	beqz	s2,80001ea0 <__muldf3+0x178>
80001e80:	00050913          	mv	s2,a0
80001e84:	7ff00993          	li	s3,2047
80001e88:	00300b13          	li	s6,3
80001e8c:	f11ff06f          	j	80001d9c <__muldf3+0x74>
80001e90:	00000493          	li	s1,0
80001e94:	00000993          	li	s3,0
80001e98:	00100b13          	li	s6,1
80001e9c:	f01ff06f          	j	80001d9c <__muldf3+0x74>
80001ea0:	00000493          	li	s1,0
80001ea4:	7ff00993          	li	s3,2047
80001ea8:	00200b13          	li	s6,2
80001eac:	ef1ff06f          	j	80001d9c <__muldf3+0x74>
80001eb0:	017467b3          	or	a5,s0,s7
80001eb4:	06078e63          	beqz	a5,80001f30 <__muldf3+0x208>
80001eb8:	04040063          	beqz	s0,80001ef8 <__muldf3+0x1d0>
80001ebc:	00040513          	mv	a0,s0
80001ec0:	545000ef          	jal	ra,80002c04 <__clzsi2>
80001ec4:	ff550693          	addi	a3,a0,-11
80001ec8:	01c00793          	li	a5,28
80001ecc:	02d7ce63          	blt	a5,a3,80001f08 <__muldf3+0x1e0>
80001ed0:	01d00713          	li	a4,29
80001ed4:	ff850793          	addi	a5,a0,-8
80001ed8:	40d70733          	sub	a4,a4,a3
80001edc:	00f41433          	sll	s0,s0,a5
80001ee0:	00ebd733          	srl	a4,s7,a4
80001ee4:	00876433          	or	s0,a4,s0
80001ee8:	00fb97b3          	sll	a5,s7,a5
80001eec:	c0d00713          	li	a4,-1011
80001ef0:	40a70533          	sub	a0,a4,a0
80001ef4:	ee5ff06f          	j	80001dd8 <__muldf3+0xb0>
80001ef8:	000b8513          	mv	a0,s7
80001efc:	509000ef          	jal	ra,80002c04 <__clzsi2>
80001f00:	02050513          	addi	a0,a0,32
80001f04:	fc1ff06f          	j	80001ec4 <__muldf3+0x19c>
80001f08:	fd850413          	addi	s0,a0,-40
80001f0c:	008b9433          	sll	s0,s7,s0
80001f10:	00000793          	li	a5,0
80001f14:	fd9ff06f          	j	80001eec <__muldf3+0x1c4>
80001f18:	017467b3          	or	a5,s0,s7
80001f1c:	02078263          	beqz	a5,80001f40 <__muldf3+0x218>
80001f20:	000b8793          	mv	a5,s7
80001f24:	7ff00513          	li	a0,2047
80001f28:	00300713          	li	a4,3
80001f2c:	eb1ff06f          	j	80001ddc <__muldf3+0xb4>
80001f30:	00000413          	li	s0,0
80001f34:	00000513          	li	a0,0
80001f38:	00100713          	li	a4,1
80001f3c:	ea1ff06f          	j	80001ddc <__muldf3+0xb4>
80001f40:	00000413          	li	s0,0
80001f44:	7ff00513          	li	a0,2047
80001f48:	00200713          	li	a4,2
80001f4c:	e91ff06f          	j	80001ddc <__muldf3+0xb4>
80001f50:	00010f37          	lui	t5,0x10
80001f54:	ffff0e93          	addi	t4,t5,-1 # ffff <__heap_size-0x1ffe0001>
80001f58:	01095713          	srli	a4,s2,0x10
80001f5c:	0107d893          	srli	a7,a5,0x10
80001f60:	01d97933          	and	s2,s2,t4
80001f64:	01d7f7b3          	and	a5,a5,t4
80001f68:	03288833          	mul	a6,a7,s2
80001f6c:	02f906b3          	mul	a3,s2,a5
80001f70:	02f70fb3          	mul	t6,a4,a5
80001f74:	01f80333          	add	t1,a6,t6
80001f78:	0106d813          	srli	a6,a3,0x10
80001f7c:	00680833          	add	a6,a6,t1
80001f80:	03170e33          	mul	t3,a4,a7
80001f84:	01f87463          	bgeu	a6,t6,80001f8c <__muldf3+0x264>
80001f88:	01ee0e33          	add	t3,t3,t5
80001f8c:	01085393          	srli	t2,a6,0x10
80001f90:	01d87833          	and	a6,a6,t4
80001f94:	01d6f6b3          	and	a3,a3,t4
80001f98:	01045f13          	srli	t5,s0,0x10
80001f9c:	01d472b3          	and	t0,s0,t4
80001fa0:	01081813          	slli	a6,a6,0x10
80001fa4:	00d80833          	add	a6,a6,a3
80001fa8:	02570eb3          	mul	t4,a4,t0
80001fac:	025906b3          	mul	a3,s2,t0
80001fb0:	032f0933          	mul	s2,t5,s2
80001fb4:	01d90333          	add	t1,s2,t4
80001fb8:	0106d913          	srli	s2,a3,0x10
80001fbc:	00690933          	add	s2,s2,t1
80001fc0:	03e70733          	mul	a4,a4,t5
80001fc4:	01d97663          	bgeu	s2,t4,80001fd0 <__muldf3+0x2a8>
80001fc8:	00010337          	lui	t1,0x10
80001fcc:	00670733          	add	a4,a4,t1
80001fd0:	01095e93          	srli	t4,s2,0x10
80001fd4:	000109b7          	lui	s3,0x10
80001fd8:	00ee8eb3          	add	t4,t4,a4
80001fdc:	fff98713          	addi	a4,s3,-1 # ffff <__heap_size-0x1ffe0001>
80001fe0:	00e97933          	and	s2,s2,a4
80001fe4:	00e6f6b3          	and	a3,a3,a4
80001fe8:	0104d413          	srli	s0,s1,0x10
80001fec:	01091913          	slli	s2,s2,0x10
80001ff0:	00e4f4b3          	and	s1,s1,a4
80001ff4:	02978733          	mul	a4,a5,s1
80001ff8:	00d90933          	add	s2,s2,a3
80001ffc:	012383b3          	add	t2,t2,s2
80002000:	02f40333          	mul	t1,s0,a5
80002004:	029886b3          	mul	a3,a7,s1
80002008:	028887b3          	mul	a5,a7,s0
8000200c:	006688b3          	add	a7,a3,t1
80002010:	01075693          	srli	a3,a4,0x10
80002014:	011686b3          	add	a3,a3,a7
80002018:	0066f463          	bgeu	a3,t1,80002020 <__muldf3+0x2f8>
8000201c:	013787b3          	add	a5,a5,s3
80002020:	0106d893          	srli	a7,a3,0x10
80002024:	000109b7          	lui	s3,0x10
80002028:	00f88fb3          	add	t6,a7,a5
8000202c:	fff98793          	addi	a5,s3,-1 # ffff <__heap_size-0x1ffe0001>
80002030:	029288b3          	mul	a7,t0,s1
80002034:	00f6f6b3          	and	a3,a3,a5
80002038:	00f77733          	and	a4,a4,a5
8000203c:	01069693          	slli	a3,a3,0x10
80002040:	00e686b3          	add	a3,a3,a4
80002044:	025407b3          	mul	a5,s0,t0
80002048:	029f04b3          	mul	s1,t5,s1
8000204c:	028f0333          	mul	t1,t5,s0
80002050:	00f484b3          	add	s1,s1,a5
80002054:	0108d413          	srli	s0,a7,0x10
80002058:	009404b3          	add	s1,s0,s1
8000205c:	00f4f463          	bgeu	s1,a5,80002064 <__muldf3+0x33c>
80002060:	01330333          	add	t1,t1,s3
80002064:	000107b7          	lui	a5,0x10
80002068:	fff78793          	addi	a5,a5,-1 # ffff <__heap_size-0x1ffe0001>
8000206c:	00f4f733          	and	a4,s1,a5
80002070:	00f8f8b3          	and	a7,a7,a5
80002074:	01071713          	slli	a4,a4,0x10
80002078:	007e0e33          	add	t3,t3,t2
8000207c:	01170733          	add	a4,a4,a7
80002080:	012e3933          	sltu	s2,t3,s2
80002084:	01d70733          	add	a4,a4,t4
80002088:	01270433          	add	s0,a4,s2
8000208c:	00de0e33          	add	t3,t3,a3
80002090:	00de36b3          	sltu	a3,t3,a3
80002094:	01f408b3          	add	a7,s0,t6
80002098:	00d88f33          	add	t5,a7,a3
8000209c:	01d73733          	sltu	a4,a4,t4
800020a0:	01243433          	sltu	s0,s0,s2
800020a4:	00876433          	or	s0,a4,s0
800020a8:	0104d493          	srli	s1,s1,0x10
800020ac:	01f8b8b3          	sltu	a7,a7,t6
800020b0:	00df36b3          	sltu	a3,t5,a3
800020b4:	00940433          	add	s0,s0,s1
800020b8:	00d8e6b3          	or	a3,a7,a3
800020bc:	00d40433          	add	s0,s0,a3
800020c0:	00640433          	add	s0,s0,t1
800020c4:	017f5793          	srli	a5,t5,0x17
800020c8:	00941413          	slli	s0,s0,0x9
800020cc:	00f46433          	or	s0,s0,a5
800020d0:	009e1793          	slli	a5,t3,0x9
800020d4:	0107e7b3          	or	a5,a5,a6
800020d8:	00f037b3          	snez	a5,a5
800020dc:	017e5e13          	srli	t3,t3,0x17
800020e0:	009f1713          	slli	a4,t5,0x9
800020e4:	01c7e7b3          	or	a5,a5,t3
800020e8:	00e7e7b3          	or	a5,a5,a4
800020ec:	01000737          	lui	a4,0x1000
800020f0:	00e47733          	and	a4,s0,a4
800020f4:	10070663          	beqz	a4,80002200 <__muldf3+0x4d8>
800020f8:	0017d713          	srli	a4,a5,0x1
800020fc:	0017f793          	andi	a5,a5,1
80002100:	00f767b3          	or	a5,a4,a5
80002104:	01f41713          	slli	a4,s0,0x1f
80002108:	00e7e7b3          	or	a5,a5,a4
8000210c:	00145413          	srli	s0,s0,0x1
80002110:	3ff58693          	addi	a3,a1,1023
80002114:	0ed05a63          	blez	a3,80002208 <__muldf3+0x4e0>
80002118:	0077f713          	andi	a4,a5,7
8000211c:	02070063          	beqz	a4,8000213c <__muldf3+0x414>
80002120:	00f7f713          	andi	a4,a5,15
80002124:	00400513          	li	a0,4
80002128:	00a70a63          	beq	a4,a0,8000213c <__muldf3+0x414>
8000212c:	00478713          	addi	a4,a5,4
80002130:	00f737b3          	sltu	a5,a4,a5
80002134:	00f40433          	add	s0,s0,a5
80002138:	00070793          	mv	a5,a4
8000213c:	01000737          	lui	a4,0x1000
80002140:	00e47733          	and	a4,s0,a4
80002144:	00070a63          	beqz	a4,80002158 <__muldf3+0x430>
80002148:	ff000737          	lui	a4,0xff000
8000214c:	fff70713          	addi	a4,a4,-1 # feffffff <__stack_top+0x3f00ffff>
80002150:	00e47433          	and	s0,s0,a4
80002154:	40058693          	addi	a3,a1,1024
80002158:	7fe00713          	li	a4,2046
8000215c:	16d74a63          	blt	a4,a3,800022d0 <__muldf3+0x5a8>
80002160:	0037d713          	srli	a4,a5,0x3
80002164:	01d41793          	slli	a5,s0,0x1d
80002168:	00e7e7b3          	or	a5,a5,a4
8000216c:	00345413          	srli	s0,s0,0x3
80002170:	01469713          	slli	a4,a3,0x14
80002174:	00c41413          	slli	s0,s0,0xc
80002178:	7ff006b7          	lui	a3,0x7ff00
8000217c:	00d77733          	and	a4,a4,a3
80002180:	00c45413          	srli	s0,s0,0xc
80002184:	00876433          	or	s0,a4,s0
80002188:	01f61613          	slli	a2,a2,0x1f
8000218c:	02c12083          	lw	ra,44(sp)
80002190:	00c46733          	or	a4,s0,a2
80002194:	02812403          	lw	s0,40(sp)
80002198:	02412483          	lw	s1,36(sp)
8000219c:	02012903          	lw	s2,32(sp)
800021a0:	01c12983          	lw	s3,28(sp)
800021a4:	01812a03          	lw	s4,24(sp)
800021a8:	01412a83          	lw	s5,20(sp)
800021ac:	01012b03          	lw	s6,16(sp)
800021b0:	00c12b83          	lw	s7,12(sp)
800021b4:	00078513          	mv	a0,a5
800021b8:	00070593          	mv	a1,a4
800021bc:	03010113          	addi	sp,sp,48
800021c0:	00008067          	ret
800021c4:	000a0613          	mv	a2,s4
800021c8:	00048413          	mv	s0,s1
800021cc:	00090793          	mv	a5,s2
800021d0:	000b0713          	mv	a4,s6
800021d4:	00200693          	li	a3,2
800021d8:	0ed70c63          	beq	a4,a3,800022d0 <__muldf3+0x5a8>
800021dc:	00300693          	li	a3,3
800021e0:	0cd70e63          	beq	a4,a3,800022bc <__muldf3+0x594>
800021e4:	00100693          	li	a3,1
800021e8:	f2d714e3          	bne	a4,a3,80002110 <__muldf3+0x3e8>
800021ec:	00000413          	li	s0,0
800021f0:	00000793          	li	a5,0
800021f4:	08c0006f          	j	80002280 <__muldf3+0x558>
800021f8:	000a8613          	mv	a2,s5
800021fc:	fd9ff06f          	j	800021d4 <__muldf3+0x4ac>
80002200:	00050593          	mv	a1,a0
80002204:	f0dff06f          	j	80002110 <__muldf3+0x3e8>
80002208:	00100513          	li	a0,1
8000220c:	40d50533          	sub	a0,a0,a3
80002210:	03800713          	li	a4,56
80002214:	fca74ce3          	blt	a4,a0,800021ec <__muldf3+0x4c4>
80002218:	01f00713          	li	a4,31
8000221c:	06a74663          	blt	a4,a0,80002288 <__muldf3+0x560>
80002220:	41e58593          	addi	a1,a1,1054
80002224:	00b41733          	sll	a4,s0,a1
80002228:	00a7d6b3          	srl	a3,a5,a0
8000222c:	00b797b3          	sll	a5,a5,a1
80002230:	00d76733          	or	a4,a4,a3
80002234:	00f037b3          	snez	a5,a5
80002238:	00f767b3          	or	a5,a4,a5
8000223c:	00a45433          	srl	s0,s0,a0
80002240:	0077f713          	andi	a4,a5,7
80002244:	02070063          	beqz	a4,80002264 <__muldf3+0x53c>
80002248:	00f7f713          	andi	a4,a5,15
8000224c:	00400693          	li	a3,4
80002250:	00d70a63          	beq	a4,a3,80002264 <__muldf3+0x53c>
80002254:	00478713          	addi	a4,a5,4
80002258:	00f737b3          	sltu	a5,a4,a5
8000225c:	00f40433          	add	s0,s0,a5
80002260:	00070793          	mv	a5,a4
80002264:	00800737          	lui	a4,0x800
80002268:	00e47733          	and	a4,s0,a4
8000226c:	06071a63          	bnez	a4,800022e0 <__muldf3+0x5b8>
80002270:	01d41713          	slli	a4,s0,0x1d
80002274:	0037d793          	srli	a5,a5,0x3
80002278:	00f767b3          	or	a5,a4,a5
8000227c:	00345413          	srli	s0,s0,0x3
80002280:	00000693          	li	a3,0
80002284:	eedff06f          	j	80002170 <__muldf3+0x448>
80002288:	fe100713          	li	a4,-31
8000228c:	40d70733          	sub	a4,a4,a3
80002290:	02000813          	li	a6,32
80002294:	00e45733          	srl	a4,s0,a4
80002298:	00000693          	li	a3,0
8000229c:	01050663          	beq	a0,a6,800022a8 <__muldf3+0x580>
800022a0:	43e58593          	addi	a1,a1,1086
800022a4:	00b416b3          	sll	a3,s0,a1
800022a8:	00f6e7b3          	or	a5,a3,a5
800022ac:	00f037b3          	snez	a5,a5
800022b0:	00f767b3          	or	a5,a4,a5
800022b4:	00000413          	li	s0,0
800022b8:	f89ff06f          	j	80002240 <__muldf3+0x518>
800022bc:	00080437          	lui	s0,0x80
800022c0:	00000793          	li	a5,0
800022c4:	7ff00693          	li	a3,2047
800022c8:	00000613          	li	a2,0
800022cc:	ea5ff06f          	j	80002170 <__muldf3+0x448>
800022d0:	00000413          	li	s0,0
800022d4:	00000793          	li	a5,0
800022d8:	7ff00693          	li	a3,2047
800022dc:	e95ff06f          	j	80002170 <__muldf3+0x448>
800022e0:	00000413          	li	s0,0
800022e4:	00000793          	li	a5,0
800022e8:	00100693          	li	a3,1
800022ec:	e85ff06f          	j	80002170 <__muldf3+0x448>

800022f0 <__subdf3>:
800022f0:	00100837          	lui	a6,0x100
800022f4:	fff80813          	addi	a6,a6,-1 # fffff <__heap_size-0x1fef0001>
800022f8:	fe010113          	addi	sp,sp,-32
800022fc:	00b877b3          	and	a5,a6,a1
80002300:	0145d713          	srli	a4,a1,0x14
80002304:	00d87833          	and	a6,a6,a3
80002308:	0146d313          	srli	t1,a3,0x14
8000230c:	00812c23          	sw	s0,24(sp)
80002310:	00379793          	slli	a5,a5,0x3
80002314:	7ff77413          	andi	s0,a4,2047
80002318:	01d55713          	srli	a4,a0,0x1d
8000231c:	00912a23          	sw	s1,20(sp)
80002320:	00f767b3          	or	a5,a4,a5
80002324:	01f5d493          	srli	s1,a1,0x1f
80002328:	01d65713          	srli	a4,a2,0x1d
8000232c:	00351593          	slli	a1,a0,0x3
80002330:	00381813          	slli	a6,a6,0x3
80002334:	00112e23          	sw	ra,28(sp)
80002338:	01212823          	sw	s2,16(sp)
8000233c:	01312623          	sw	s3,12(sp)
80002340:	7ff37313          	andi	t1,t1,2047
80002344:	7ff00513          	li	a0,2047
80002348:	01f6d693          	srli	a3,a3,0x1f
8000234c:	01076733          	or	a4,a4,a6
80002350:	00361613          	slli	a2,a2,0x3
80002354:	00a31663          	bne	t1,a0,80002360 <__subdf3+0x70>
80002358:	00c76533          	or	a0,a4,a2
8000235c:	00051463          	bnez	a0,80002364 <__subdf3+0x74>
80002360:	0016c693          	xori	a3,a3,1
80002364:	40640833          	sub	a6,s0,t1
80002368:	2c969863          	bne	a3,s1,80002638 <__subdf3+0x348>
8000236c:	13005063          	blez	a6,8000248c <__subdf3+0x19c>
80002370:	04031063          	bnez	t1,800023b0 <__subdf3+0xc0>
80002374:	00c766b3          	or	a3,a4,a2
80002378:	70068c63          	beqz	a3,80002a90 <__subdf3+0x7a0>
8000237c:	fff80513          	addi	a0,a6,-1
80002380:	02051063          	bnez	a0,800023a0 <__subdf3+0xb0>
80002384:	00c58633          	add	a2,a1,a2
80002388:	00b63533          	sltu	a0,a2,a1
8000238c:	00e787b3          	add	a5,a5,a4
80002390:	00a787b3          	add	a5,a5,a0
80002394:	00060593          	mv	a1,a2
80002398:	00100413          	li	s0,1
8000239c:	0700006f          	j	8000240c <__subdf3+0x11c>
800023a0:	7ff00693          	li	a3,2047
800023a4:	02d81063          	bne	a6,a3,800023c4 <__subdf3+0xd4>
800023a8:	7ff00413          	li	s0,2047
800023ac:	2140006f          	j	800025c0 <__subdf3+0x2d0>
800023b0:	7ff00693          	li	a3,2047
800023b4:	20d40663          	beq	s0,a3,800025c0 <__subdf3+0x2d0>
800023b8:	008006b7          	lui	a3,0x800
800023bc:	00d76733          	or	a4,a4,a3
800023c0:	00080513          	mv	a0,a6
800023c4:	03800693          	li	a3,56
800023c8:	0aa6cc63          	blt	a3,a0,80002480 <__subdf3+0x190>
800023cc:	01f00693          	li	a3,31
800023d0:	06a6ce63          	blt	a3,a0,8000244c <__subdf3+0x15c>
800023d4:	02000813          	li	a6,32
800023d8:	40a80833          	sub	a6,a6,a0
800023dc:	010716b3          	sll	a3,a4,a6
800023e0:	00a658b3          	srl	a7,a2,a0
800023e4:	01061633          	sll	a2,a2,a6
800023e8:	0116e6b3          	or	a3,a3,a7
800023ec:	00c03633          	snez	a2,a2
800023f0:	00c6e633          	or	a2,a3,a2
800023f4:	00a75733          	srl	a4,a4,a0
800023f8:	00b60633          	add	a2,a2,a1
800023fc:	00b63533          	sltu	a0,a2,a1
80002400:	00f70733          	add	a4,a4,a5
80002404:	00a707b3          	add	a5,a4,a0
80002408:	00060593          	mv	a1,a2
8000240c:	00800737          	lui	a4,0x800
80002410:	00e7f733          	and	a4,a5,a4
80002414:	1a070663          	beqz	a4,800025c0 <__subdf3+0x2d0>
80002418:	00140413          	addi	s0,s0,1 # 80001 <__heap_size-0x1ff6ffff>
8000241c:	7ff00713          	li	a4,2047
80002420:	5ce40a63          	beq	s0,a4,800029f4 <__subdf3+0x704>
80002424:	ff800737          	lui	a4,0xff800
80002428:	fff70713          	addi	a4,a4,-1 # ff7fffff <__stack_top+0x3f80ffff>
8000242c:	00e7f7b3          	and	a5,a5,a4
80002430:	0015f513          	andi	a0,a1,1
80002434:	0015d713          	srli	a4,a1,0x1
80002438:	00a76533          	or	a0,a4,a0
8000243c:	01f79593          	slli	a1,a5,0x1f
80002440:	00a5e5b3          	or	a1,a1,a0
80002444:	0017d793          	srli	a5,a5,0x1
80002448:	1780006f          	j	800025c0 <__subdf3+0x2d0>
8000244c:	fe050693          	addi	a3,a0,-32
80002450:	02000893          	li	a7,32
80002454:	00d756b3          	srl	a3,a4,a3
80002458:	00000813          	li	a6,0
8000245c:	01150863          	beq	a0,a7,8000246c <__subdf3+0x17c>
80002460:	04000813          	li	a6,64
80002464:	40a80533          	sub	a0,a6,a0
80002468:	00a71833          	sll	a6,a4,a0
8000246c:	00c86633          	or	a2,a6,a2
80002470:	00c03633          	snez	a2,a2
80002474:	00c6e633          	or	a2,a3,a2
80002478:	00000713          	li	a4,0
8000247c:	f7dff06f          	j	800023f8 <__subdf3+0x108>
80002480:	00c76633          	or	a2,a4,a2
80002484:	00c03633          	snez	a2,a2
80002488:	ff1ff06f          	j	80002478 <__subdf3+0x188>
8000248c:	0e080263          	beqz	a6,80002570 <__subdf3+0x280>
80002490:	40830533          	sub	a0,t1,s0
80002494:	02041e63          	bnez	s0,800024d0 <__subdf3+0x1e0>
80002498:	00b7e6b3          	or	a3,a5,a1
8000249c:	52068c63          	beqz	a3,800029d4 <__subdf3+0x6e4>
800024a0:	fff50693          	addi	a3,a0,-1
800024a4:	00069c63          	bnez	a3,800024bc <__subdf3+0x1cc>
800024a8:	00c585b3          	add	a1,a1,a2
800024ac:	00e787b3          	add	a5,a5,a4
800024b0:	00c5b633          	sltu	a2,a1,a2
800024b4:	00c787b3          	add	a5,a5,a2
800024b8:	ee1ff06f          	j	80002398 <__subdf3+0xa8>
800024bc:	7ff00813          	li	a6,2047
800024c0:	03051263          	bne	a0,a6,800024e4 <__subdf3+0x1f4>
800024c4:	00070793          	mv	a5,a4
800024c8:	00060593          	mv	a1,a2
800024cc:	eddff06f          	j	800023a8 <__subdf3+0xb8>
800024d0:	7ff00693          	li	a3,2047
800024d4:	fed308e3          	beq	t1,a3,800024c4 <__subdf3+0x1d4>
800024d8:	008006b7          	lui	a3,0x800
800024dc:	00d7e7b3          	or	a5,a5,a3
800024e0:	00050693          	mv	a3,a0
800024e4:	03800513          	li	a0,56
800024e8:	06d54e63          	blt	a0,a3,80002564 <__subdf3+0x274>
800024ec:	01f00513          	li	a0,31
800024f0:	04d54063          	blt	a0,a3,80002530 <__subdf3+0x240>
800024f4:	02000813          	li	a6,32
800024f8:	40d80833          	sub	a6,a6,a3
800024fc:	01079533          	sll	a0,a5,a6
80002500:	00d5d8b3          	srl	a7,a1,a3
80002504:	010595b3          	sll	a1,a1,a6
80002508:	01156533          	or	a0,a0,a7
8000250c:	00b035b3          	snez	a1,a1
80002510:	00b56533          	or	a0,a0,a1
80002514:	00d7d7b3          	srl	a5,a5,a3
80002518:	00c505b3          	add	a1,a0,a2
8000251c:	00e787b3          	add	a5,a5,a4
80002520:	00c5b633          	sltu	a2,a1,a2
80002524:	00c787b3          	add	a5,a5,a2
80002528:	00030413          	mv	s0,t1
8000252c:	ee1ff06f          	j	8000240c <__subdf3+0x11c>
80002530:	fe068513          	addi	a0,a3,-32 # 7fffe0 <__heap_size-0x1f7f0020>
80002534:	02000893          	li	a7,32
80002538:	00a7d833          	srl	a6,a5,a0
8000253c:	00000513          	li	a0,0
80002540:	01168863          	beq	a3,a7,80002550 <__subdf3+0x260>
80002544:	04000513          	li	a0,64
80002548:	40d50533          	sub	a0,a0,a3
8000254c:	00a79533          	sll	a0,a5,a0
80002550:	00b56533          	or	a0,a0,a1
80002554:	00a03533          	snez	a0,a0
80002558:	00a86533          	or	a0,a6,a0
8000255c:	00000793          	li	a5,0
80002560:	fb9ff06f          	j	80002518 <__subdf3+0x228>
80002564:	00b7e533          	or	a0,a5,a1
80002568:	00a03533          	snez	a0,a0
8000256c:	ff1ff06f          	j	8000255c <__subdf3+0x26c>
80002570:	00140693          	addi	a3,s0,1
80002574:	7fe6f513          	andi	a0,a3,2046
80002578:	08051863          	bnez	a0,80002608 <__subdf3+0x318>
8000257c:	00b7e6b3          	or	a3,a5,a1
80002580:	06041463          	bnez	s0,800025e8 <__subdf3+0x2f8>
80002584:	46068063          	beqz	a3,800029e4 <__subdf3+0x6f4>
80002588:	00c766b3          	or	a3,a4,a2
8000258c:	02068a63          	beqz	a3,800025c0 <__subdf3+0x2d0>
80002590:	00c58633          	add	a2,a1,a2
80002594:	00e787b3          	add	a5,a5,a4
80002598:	00b63533          	sltu	a0,a2,a1
8000259c:	00a787b3          	add	a5,a5,a0
800025a0:	00800737          	lui	a4,0x800
800025a4:	00e7f733          	and	a4,a5,a4
800025a8:	00060593          	mv	a1,a2
800025ac:	00070a63          	beqz	a4,800025c0 <__subdf3+0x2d0>
800025b0:	ff800737          	lui	a4,0xff800
800025b4:	fff70713          	addi	a4,a4,-1 # ff7fffff <__stack_top+0x3f80ffff>
800025b8:	00e7f7b3          	and	a5,a5,a4
800025bc:	00100413          	li	s0,1
800025c0:	0075f713          	andi	a4,a1,7
800025c4:	42070c63          	beqz	a4,800029fc <__subdf3+0x70c>
800025c8:	00f5f713          	andi	a4,a1,15
800025cc:	00400693          	li	a3,4
800025d0:	42d70663          	beq	a4,a3,800029fc <__subdf3+0x70c>
800025d4:	00458713          	addi	a4,a1,4
800025d8:	00b73533          	sltu	a0,a4,a1
800025dc:	00a787b3          	add	a5,a5,a0
800025e0:	00070593          	mv	a1,a4
800025e4:	4180006f          	j	800029fc <__subdf3+0x70c>
800025e8:	ec068ee3          	beqz	a3,800024c4 <__subdf3+0x1d4>
800025ec:	00c76633          	or	a2,a4,a2
800025f0:	da060ce3          	beqz	a2,800023a8 <__subdf3+0xb8>
800025f4:	00000493          	li	s1,0
800025f8:	004007b7          	lui	a5,0x400
800025fc:	00000593          	li	a1,0
80002600:	7ff00413          	li	s0,2047
80002604:	3f80006f          	j	800029fc <__subdf3+0x70c>
80002608:	7ff00513          	li	a0,2047
8000260c:	3ea68263          	beq	a3,a0,800029f0 <__subdf3+0x700>
80002610:	00c58633          	add	a2,a1,a2
80002614:	00b63533          	sltu	a0,a2,a1
80002618:	00e787b3          	add	a5,a5,a4
8000261c:	00a787b3          	add	a5,a5,a0
80002620:	01f79513          	slli	a0,a5,0x1f
80002624:	00165613          	srli	a2,a2,0x1
80002628:	00c565b3          	or	a1,a0,a2
8000262c:	0017d793          	srli	a5,a5,0x1
80002630:	00068413          	mv	s0,a3
80002634:	f8dff06f          	j	800025c0 <__subdf3+0x2d0>
80002638:	0f005c63          	blez	a6,80002730 <__subdf3+0x440>
8000263c:	08031e63          	bnez	t1,800026d8 <__subdf3+0x3e8>
80002640:	00c766b3          	or	a3,a4,a2
80002644:	44068663          	beqz	a3,80002a90 <__subdf3+0x7a0>
80002648:	fff80513          	addi	a0,a6,-1
8000264c:	02051063          	bnez	a0,8000266c <__subdf3+0x37c>
80002650:	40c58633          	sub	a2,a1,a2
80002654:	00c5b533          	sltu	a0,a1,a2
80002658:	40e787b3          	sub	a5,a5,a4
8000265c:	40a787b3          	sub	a5,a5,a0
80002660:	00060593          	mv	a1,a2
80002664:	00100413          	li	s0,1
80002668:	0540006f          	j	800026bc <__subdf3+0x3cc>
8000266c:	7ff00693          	li	a3,2047
80002670:	d2d80ce3          	beq	a6,a3,800023a8 <__subdf3+0xb8>
80002674:	03800693          	li	a3,56
80002678:	0aa6c663          	blt	a3,a0,80002724 <__subdf3+0x434>
8000267c:	01f00693          	li	a3,31
80002680:	06a6c863          	blt	a3,a0,800026f0 <__subdf3+0x400>
80002684:	02000813          	li	a6,32
80002688:	40a80833          	sub	a6,a6,a0
8000268c:	010716b3          	sll	a3,a4,a6
80002690:	00a658b3          	srl	a7,a2,a0
80002694:	01061633          	sll	a2,a2,a6
80002698:	0116e6b3          	or	a3,a3,a7
8000269c:	00c03633          	snez	a2,a2
800026a0:	00c6e633          	or	a2,a3,a2
800026a4:	00a75733          	srl	a4,a4,a0
800026a8:	40c58633          	sub	a2,a1,a2
800026ac:	00c5b533          	sltu	a0,a1,a2
800026b0:	40e78733          	sub	a4,a5,a4
800026b4:	40a707b3          	sub	a5,a4,a0
800026b8:	00060593          	mv	a1,a2
800026bc:	00800937          	lui	s2,0x800
800026c0:	0127f733          	and	a4,a5,s2
800026c4:	ee070ee3          	beqz	a4,800025c0 <__subdf3+0x2d0>
800026c8:	fff90913          	addi	s2,s2,-1 # 7fffff <__heap_size-0x1f7f0001>
800026cc:	0127f933          	and	s2,a5,s2
800026d0:	00058993          	mv	s3,a1
800026d4:	2140006f          	j	800028e8 <__subdf3+0x5f8>
800026d8:	7ff00693          	li	a3,2047
800026dc:	eed402e3          	beq	s0,a3,800025c0 <__subdf3+0x2d0>
800026e0:	008006b7          	lui	a3,0x800
800026e4:	00d76733          	or	a4,a4,a3
800026e8:	00080513          	mv	a0,a6
800026ec:	f89ff06f          	j	80002674 <__subdf3+0x384>
800026f0:	fe050693          	addi	a3,a0,-32
800026f4:	02000893          	li	a7,32
800026f8:	00d756b3          	srl	a3,a4,a3
800026fc:	00000813          	li	a6,0
80002700:	01150863          	beq	a0,a7,80002710 <__subdf3+0x420>
80002704:	04000813          	li	a6,64
80002708:	40a80533          	sub	a0,a6,a0
8000270c:	00a71833          	sll	a6,a4,a0
80002710:	00c86633          	or	a2,a6,a2
80002714:	00c03633          	snez	a2,a2
80002718:	00c6e633          	or	a2,a3,a2
8000271c:	00000713          	li	a4,0
80002720:	f89ff06f          	j	800026a8 <__subdf3+0x3b8>
80002724:	00c76633          	or	a2,a4,a2
80002728:	00c03633          	snez	a2,a2
8000272c:	ff1ff06f          	j	8000271c <__subdf3+0x42c>
80002730:	0e080863          	beqz	a6,80002820 <__subdf3+0x530>
80002734:	40830533          	sub	a0,t1,s0
80002738:	04041263          	bnez	s0,8000277c <__subdf3+0x48c>
8000273c:	00b7e833          	or	a6,a5,a1
80002740:	34080c63          	beqz	a6,80002a98 <__subdf3+0x7a8>
80002744:	fff50813          	addi	a6,a0,-1
80002748:	00081e63          	bnez	a6,80002764 <__subdf3+0x474>
8000274c:	40b605b3          	sub	a1,a2,a1
80002750:	40f707b3          	sub	a5,a4,a5
80002754:	00b63633          	sltu	a2,a2,a1
80002758:	40c787b3          	sub	a5,a5,a2
8000275c:	00068493          	mv	s1,a3
80002760:	f05ff06f          	j	80002664 <__subdf3+0x374>
80002764:	7ff00893          	li	a7,2047
80002768:	03151463          	bne	a0,a7,80002790 <__subdf3+0x4a0>
8000276c:	00070793          	mv	a5,a4
80002770:	00060593          	mv	a1,a2
80002774:	7ff00413          	li	s0,2047
80002778:	0d00006f          	j	80002848 <__subdf3+0x558>
8000277c:	7ff00813          	li	a6,2047
80002780:	ff0306e3          	beq	t1,a6,8000276c <__subdf3+0x47c>
80002784:	00800837          	lui	a6,0x800
80002788:	0107e7b3          	or	a5,a5,a6
8000278c:	00050813          	mv	a6,a0
80002790:	03800513          	li	a0,56
80002794:	09054063          	blt	a0,a6,80002814 <__subdf3+0x524>
80002798:	01f00513          	li	a0,31
8000279c:	05054263          	blt	a0,a6,800027e0 <__subdf3+0x4f0>
800027a0:	02000893          	li	a7,32
800027a4:	410888b3          	sub	a7,a7,a6
800027a8:	01179533          	sll	a0,a5,a7
800027ac:	0105de33          	srl	t3,a1,a6
800027b0:	011595b3          	sll	a1,a1,a7
800027b4:	01c56533          	or	a0,a0,t3
800027b8:	00b035b3          	snez	a1,a1
800027bc:	00b56533          	or	a0,a0,a1
800027c0:	0107d7b3          	srl	a5,a5,a6
800027c4:	40a605b3          	sub	a1,a2,a0
800027c8:	40f707b3          	sub	a5,a4,a5
800027cc:	00b63633          	sltu	a2,a2,a1
800027d0:	40c787b3          	sub	a5,a5,a2
800027d4:	00030413          	mv	s0,t1
800027d8:	00068493          	mv	s1,a3
800027dc:	ee1ff06f          	j	800026bc <__subdf3+0x3cc>
800027e0:	fe080513          	addi	a0,a6,-32 # 7fffe0 <__heap_size-0x1f7f0020>
800027e4:	02000e13          	li	t3,32
800027e8:	00a7d8b3          	srl	a7,a5,a0
800027ec:	00000513          	li	a0,0
800027f0:	01c80863          	beq	a6,t3,80002800 <__subdf3+0x510>
800027f4:	04000513          	li	a0,64
800027f8:	41050533          	sub	a0,a0,a6
800027fc:	00a79533          	sll	a0,a5,a0
80002800:	00b56533          	or	a0,a0,a1
80002804:	00a03533          	snez	a0,a0
80002808:	00a8e533          	or	a0,a7,a0
8000280c:	00000793          	li	a5,0
80002810:	fb5ff06f          	j	800027c4 <__subdf3+0x4d4>
80002814:	00b7e533          	or	a0,a5,a1
80002818:	00a03533          	snez	a0,a0
8000281c:	ff1ff06f          	j	8000280c <__subdf3+0x51c>
80002820:	00140513          	addi	a0,s0,1
80002824:	7fe57513          	andi	a0,a0,2046
80002828:	08051863          	bnez	a0,800028b8 <__subdf3+0x5c8>
8000282c:	00b7e833          	or	a6,a5,a1
80002830:	00c76533          	or	a0,a4,a2
80002834:	06041263          	bnez	s0,80002898 <__subdf3+0x5a8>
80002838:	00081c63          	bnez	a6,80002850 <__subdf3+0x560>
8000283c:	26050663          	beqz	a0,80002aa8 <__subdf3+0x7b8>
80002840:	00070793          	mv	a5,a4
80002844:	00060593          	mv	a1,a2
80002848:	00068493          	mv	s1,a3
8000284c:	d75ff06f          	j	800025c0 <__subdf3+0x2d0>
80002850:	d60508e3          	beqz	a0,800025c0 <__subdf3+0x2d0>
80002854:	40c58833          	sub	a6,a1,a2
80002858:	0105b8b3          	sltu	a7,a1,a6
8000285c:	40e78533          	sub	a0,a5,a4
80002860:	41150533          	sub	a0,a0,a7
80002864:	008008b7          	lui	a7,0x800
80002868:	011578b3          	and	a7,a0,a7
8000286c:	00088c63          	beqz	a7,80002884 <__subdf3+0x594>
80002870:	40b605b3          	sub	a1,a2,a1
80002874:	40f707b3          	sub	a5,a4,a5
80002878:	00b63633          	sltu	a2,a2,a1
8000287c:	40c787b3          	sub	a5,a5,a2
80002880:	fc9ff06f          	j	80002848 <__subdf3+0x558>
80002884:	00a865b3          	or	a1,a6,a0
80002888:	22058863          	beqz	a1,80002ab8 <__subdf3+0x7c8>
8000288c:	00050793          	mv	a5,a0
80002890:	00080593          	mv	a1,a6
80002894:	d2dff06f          	j	800025c0 <__subdf3+0x2d0>
80002898:	00081c63          	bnez	a6,800028b0 <__subdf3+0x5c0>
8000289c:	22050263          	beqz	a0,80002ac0 <__subdf3+0x7d0>
800028a0:	00070793          	mv	a5,a4
800028a4:	00060593          	mv	a1,a2
800028a8:	00068493          	mv	s1,a3
800028ac:	afdff06f          	j	800023a8 <__subdf3+0xb8>
800028b0:	ae050ce3          	beqz	a0,800023a8 <__subdf3+0xb8>
800028b4:	d41ff06f          	j	800025f4 <__subdf3+0x304>
800028b8:	40c589b3          	sub	s3,a1,a2
800028bc:	0135b533          	sltu	a0,a1,s3
800028c0:	40e78933          	sub	s2,a5,a4
800028c4:	40a90933          	sub	s2,s2,a0
800028c8:	00800537          	lui	a0,0x800
800028cc:	00a97533          	and	a0,s2,a0
800028d0:	08050463          	beqz	a0,80002958 <__subdf3+0x668>
800028d4:	40b609b3          	sub	s3,a2,a1
800028d8:	40f707b3          	sub	a5,a4,a5
800028dc:	01363633          	sltu	a2,a2,s3
800028e0:	40c78933          	sub	s2,a5,a2
800028e4:	00068493          	mv	s1,a3
800028e8:	08090263          	beqz	s2,8000296c <__subdf3+0x67c>
800028ec:	00090513          	mv	a0,s2
800028f0:	314000ef          	jal	ra,80002c04 <__clzsi2>
800028f4:	ff850713          	addi	a4,a0,-8 # 7ffff8 <__heap_size-0x1f7f0008>
800028f8:	01f00793          	li	a5,31
800028fc:	08e7c063          	blt	a5,a4,8000297c <__subdf3+0x68c>
80002900:	02000793          	li	a5,32
80002904:	40e787b3          	sub	a5,a5,a4
80002908:	00e91933          	sll	s2,s2,a4
8000290c:	00f9d7b3          	srl	a5,s3,a5
80002910:	0127e7b3          	or	a5,a5,s2
80002914:	00e995b3          	sll	a1,s3,a4
80002918:	0a874463          	blt	a4,s0,800029c0 <__subdf3+0x6d0>
8000291c:	40870733          	sub	a4,a4,s0
80002920:	00170693          	addi	a3,a4,1
80002924:	01f00613          	li	a2,31
80002928:	06d64263          	blt	a2,a3,8000298c <__subdf3+0x69c>
8000292c:	02000713          	li	a4,32
80002930:	40d70733          	sub	a4,a4,a3
80002934:	00e79633          	sll	a2,a5,a4
80002938:	00d5d533          	srl	a0,a1,a3
8000293c:	00e595b3          	sll	a1,a1,a4
80002940:	00a66633          	or	a2,a2,a0
80002944:	00b035b3          	snez	a1,a1
80002948:	00b665b3          	or	a1,a2,a1
8000294c:	00d7d7b3          	srl	a5,a5,a3
80002950:	00000413          	li	s0,0
80002954:	c6dff06f          	j	800025c0 <__subdf3+0x2d0>
80002958:	0129e5b3          	or	a1,s3,s2
8000295c:	f80596e3          	bnez	a1,800028e8 <__subdf3+0x5f8>
80002960:	00000793          	li	a5,0
80002964:	00000413          	li	s0,0
80002968:	1480006f          	j	80002ab0 <__subdf3+0x7c0>
8000296c:	00098513          	mv	a0,s3
80002970:	294000ef          	jal	ra,80002c04 <__clzsi2>
80002974:	02050513          	addi	a0,a0,32
80002978:	f7dff06f          	j	800028f4 <__subdf3+0x604>
8000297c:	fd850793          	addi	a5,a0,-40
80002980:	00f997b3          	sll	a5,s3,a5
80002984:	00000593          	li	a1,0
80002988:	f91ff06f          	j	80002918 <__subdf3+0x628>
8000298c:	fe170713          	addi	a4,a4,-31
80002990:	02000613          	li	a2,32
80002994:	00e7d733          	srl	a4,a5,a4
80002998:	00000513          	li	a0,0
8000299c:	00c68863          	beq	a3,a2,800029ac <__subdf3+0x6bc>
800029a0:	04000513          	li	a0,64
800029a4:	40d50533          	sub	a0,a0,a3
800029a8:	00a79533          	sll	a0,a5,a0
800029ac:	00a5e533          	or	a0,a1,a0
800029b0:	00a03533          	snez	a0,a0
800029b4:	00a765b3          	or	a1,a4,a0
800029b8:	00000793          	li	a5,0
800029bc:	f95ff06f          	j	80002950 <__subdf3+0x660>
800029c0:	40e40433          	sub	s0,s0,a4
800029c4:	ff800737          	lui	a4,0xff800
800029c8:	fff70713          	addi	a4,a4,-1 # ff7fffff <__stack_top+0x3f80ffff>
800029cc:	00e7f7b3          	and	a5,a5,a4
800029d0:	bf1ff06f          	j	800025c0 <__subdf3+0x2d0>
800029d4:	00070793          	mv	a5,a4
800029d8:	00060593          	mv	a1,a2
800029dc:	00050413          	mv	s0,a0
800029e0:	be1ff06f          	j	800025c0 <__subdf3+0x2d0>
800029e4:	00070793          	mv	a5,a4
800029e8:	00060593          	mv	a1,a2
800029ec:	bd5ff06f          	j	800025c0 <__subdf3+0x2d0>
800029f0:	7ff00413          	li	s0,2047
800029f4:	00000793          	li	a5,0
800029f8:	00000593          	li	a1,0
800029fc:	00800737          	lui	a4,0x800
80002a00:	00e7f733          	and	a4,a5,a4
80002a04:	00070e63          	beqz	a4,80002a20 <__subdf3+0x730>
80002a08:	00140413          	addi	s0,s0,1
80002a0c:	7ff00713          	li	a4,2047
80002a10:	0ce40063          	beq	s0,a4,80002ad0 <__subdf3+0x7e0>
80002a14:	ff800737          	lui	a4,0xff800
80002a18:	fff70713          	addi	a4,a4,-1 # ff7fffff <__stack_top+0x3f80ffff>
80002a1c:	00e7f7b3          	and	a5,a5,a4
80002a20:	01d79713          	slli	a4,a5,0x1d
80002a24:	0035d513          	srli	a0,a1,0x3
80002a28:	00a76533          	or	a0,a4,a0
80002a2c:	7ff00713          	li	a4,2047
80002a30:	0037d793          	srli	a5,a5,0x3
80002a34:	00e41e63          	bne	s0,a4,80002a50 <__subdf3+0x760>
80002a38:	00f56533          	or	a0,a0,a5
80002a3c:	00000793          	li	a5,0
80002a40:	00050863          	beqz	a0,80002a50 <__subdf3+0x760>
80002a44:	000807b7          	lui	a5,0x80
80002a48:	00000513          	li	a0,0
80002a4c:	00000493          	li	s1,0
80002a50:	01441713          	slli	a4,s0,0x14
80002a54:	7ff006b7          	lui	a3,0x7ff00
80002a58:	00c79793          	slli	a5,a5,0xc
80002a5c:	01c12083          	lw	ra,28(sp)
80002a60:	01812403          	lw	s0,24(sp)
80002a64:	00d77733          	and	a4,a4,a3
80002a68:	00c7d793          	srli	a5,a5,0xc
80002a6c:	01f49493          	slli	s1,s1,0x1f
80002a70:	00f767b3          	or	a5,a4,a5
80002a74:	0097e733          	or	a4,a5,s1
80002a78:	01012903          	lw	s2,16(sp)
80002a7c:	01412483          	lw	s1,20(sp)
80002a80:	00c12983          	lw	s3,12(sp)
80002a84:	00070593          	mv	a1,a4
80002a88:	02010113          	addi	sp,sp,32
80002a8c:	00008067          	ret
80002a90:	00080413          	mv	s0,a6
80002a94:	b2dff06f          	j	800025c0 <__subdf3+0x2d0>
80002a98:	00070793          	mv	a5,a4
80002a9c:	00060593          	mv	a1,a2
80002aa0:	00050413          	mv	s0,a0
80002aa4:	da5ff06f          	j	80002848 <__subdf3+0x558>
80002aa8:	00000793          	li	a5,0
80002aac:	00000593          	li	a1,0
80002ab0:	00000493          	li	s1,0
80002ab4:	f49ff06f          	j	800029fc <__subdf3+0x70c>
80002ab8:	00000793          	li	a5,0
80002abc:	ff5ff06f          	j	80002ab0 <__subdf3+0x7c0>
80002ac0:	00000593          	li	a1,0
80002ac4:	00000493          	li	s1,0
80002ac8:	004007b7          	lui	a5,0x400
80002acc:	b35ff06f          	j	80002600 <__subdf3+0x310>
80002ad0:	00000793          	li	a5,0
80002ad4:	00000593          	li	a1,0
80002ad8:	f49ff06f          	j	80002a20 <__subdf3+0x730>

80002adc <__fixdfsi>:
80002adc:	0145d713          	srli	a4,a1,0x14
80002ae0:	001006b7          	lui	a3,0x100
80002ae4:	fff68793          	addi	a5,a3,-1 # fffff <__heap_size-0x1fef0001>
80002ae8:	7ff77713          	andi	a4,a4,2047
80002aec:	3fe00613          	li	a2,1022
80002af0:	00b7f7b3          	and	a5,a5,a1
80002af4:	01f5d593          	srli	a1,a1,0x1f
80002af8:	04e65e63          	bge	a2,a4,80002b54 <__fixdfsi+0x78>
80002afc:	41d00613          	li	a2,1053
80002b00:	00e65a63          	bge	a2,a4,80002b14 <__fixdfsi+0x38>
80002b04:	80000537          	lui	a0,0x80000
80002b08:	fff54513          	not	a0,a0
80002b0c:	00a58533          	add	a0,a1,a0
80002b10:	00008067          	ret
80002b14:	00d7e7b3          	or	a5,a5,a3
80002b18:	43300693          	li	a3,1075
80002b1c:	40e686b3          	sub	a3,a3,a4
80002b20:	01f00613          	li	a2,31
80002b24:	02d64063          	blt	a2,a3,80002b44 <__fixdfsi+0x68>
80002b28:	bed70713          	addi	a4,a4,-1043
80002b2c:	00e797b3          	sll	a5,a5,a4
80002b30:	00d55533          	srl	a0,a0,a3
80002b34:	00a7e533          	or	a0,a5,a0
80002b38:	02058063          	beqz	a1,80002b58 <__fixdfsi+0x7c>
80002b3c:	40a00533          	neg	a0,a0
80002b40:	00008067          	ret
80002b44:	41300513          	li	a0,1043
80002b48:	40e50533          	sub	a0,a0,a4
80002b4c:	00a7d533          	srl	a0,a5,a0
80002b50:	fe9ff06f          	j	80002b38 <__fixdfsi+0x5c>
80002b54:	00000513          	li	a0,0
80002b58:	00008067          	ret

80002b5c <__floatsidf>:
80002b5c:	ff010113          	addi	sp,sp,-16
80002b60:	00112623          	sw	ra,12(sp)
80002b64:	00812423          	sw	s0,8(sp)
80002b68:	00912223          	sw	s1,4(sp)
80002b6c:	08050663          	beqz	a0,80002bf8 <__floatsidf+0x9c>
80002b70:	41f55793          	srai	a5,a0,0x1f
80002b74:	00a7c433          	xor	s0,a5,a0
80002b78:	40f40433          	sub	s0,s0,a5
80002b7c:	01f55493          	srli	s1,a0,0x1f
80002b80:	00040513          	mv	a0,s0
80002b84:	080000ef          	jal	ra,80002c04 <__clzsi2>
80002b88:	41e00713          	li	a4,1054
80002b8c:	00a00793          	li	a5,10
80002b90:	40a70733          	sub	a4,a4,a0
80002b94:	04a7c863          	blt	a5,a0,80002be4 <__floatsidf+0x88>
80002b98:	00b00793          	li	a5,11
80002b9c:	40a787b3          	sub	a5,a5,a0
80002ba0:	01550513          	addi	a0,a0,21 # 80000015 <__stack_top+0xc0010015>
80002ba4:	00f457b3          	srl	a5,s0,a5
80002ba8:	00a41433          	sll	s0,s0,a0
80002bac:	00048513          	mv	a0,s1
80002bb0:	00c79793          	slli	a5,a5,0xc
80002bb4:	01471713          	slli	a4,a4,0x14
80002bb8:	00c7d793          	srli	a5,a5,0xc
80002bbc:	01f51513          	slli	a0,a0,0x1f
80002bc0:	00f767b3          	or	a5,a4,a5
80002bc4:	00c12083          	lw	ra,12(sp)
80002bc8:	00a7e733          	or	a4,a5,a0
80002bcc:	00040513          	mv	a0,s0
80002bd0:	00812403          	lw	s0,8(sp)
80002bd4:	00412483          	lw	s1,4(sp)
80002bd8:	00070593          	mv	a1,a4
80002bdc:	01010113          	addi	sp,sp,16
80002be0:	00008067          	ret
80002be4:	ff550513          	addi	a0,a0,-11
80002be8:	00a417b3          	sll	a5,s0,a0
80002bec:	00048513          	mv	a0,s1
80002bf0:	00000413          	li	s0,0
80002bf4:	fbdff06f          	j	80002bb0 <__floatsidf+0x54>
80002bf8:	00000713          	li	a4,0
80002bfc:	00000793          	li	a5,0
80002c00:	ff1ff06f          	j	80002bf0 <__floatsidf+0x94>

80002c04 <__clzsi2>:
80002c04:	000107b7          	lui	a5,0x10
80002c08:	02f57a63          	bgeu	a0,a5,80002c3c <__clzsi2+0x38>
80002c0c:	0ff00793          	li	a5,255
80002c10:	00a7b7b3          	sltu	a5,a5,a0
80002c14:	00379793          	slli	a5,a5,0x3
80002c18:	8000c737          	lui	a4,0x8000c
80002c1c:	02000693          	li	a3,32
80002c20:	40f686b3          	sub	a3,a3,a5
80002c24:	00f55533          	srl	a0,a0,a5
80002c28:	22c70793          	addi	a5,a4,556 # 8000c22c <__stack_top+0xc001c22c>
80002c2c:	00a78533          	add	a0,a5,a0
80002c30:	00054503          	lbu	a0,0(a0)
80002c34:	40a68533          	sub	a0,a3,a0
80002c38:	00008067          	ret
80002c3c:	01000737          	lui	a4,0x1000
80002c40:	01000793          	li	a5,16
80002c44:	fce56ae3          	bltu	a0,a4,80002c18 <__clzsi2+0x14>
80002c48:	01800793          	li	a5,24
80002c4c:	fcdff06f          	j	80002c18 <__clzsi2+0x14>

Disassembly of section .text.startup:

80002c50 <main>:
80002c50:	ff010113          	addi	sp,sp,-16
80002c54:	00100513          	li	a0,1
80002c58:	00112623          	sw	ra,12(sp)
80002c5c:	00812423          	sw	s0,8(sp)
80002c60:	b3cfe0ef          	jal	ra,80000f9c <setStats>
80002c64:	8000a437          	lui	s0,0x8000a
80002c68:	00001537          	lui	a0,0x1
80002c6c:	00040593          	mv	a1,s0
80002c70:	80050513          	addi	a0,a0,-2048 # 800 <__heap_size-0x1ffef800>
80002c74:	bbcfd0ef          	jal	ra,80000030 <sort>
80002c78:	00000513          	li	a0,0
80002c7c:	b20fe0ef          	jal	ra,80000f9c <setStats>
80002c80:	b48fe0ef          	jal	ra,80000fc8 <disStats>
80002c84:	80008737          	lui	a4,0x80008
80002c88:	00040793          	mv	a5,s0
80002c8c:	00070713          	mv	a4,a4
80002c90:	00000593          	li	a1,0
80002c94:	0007a603          	lw	a2,0(a5) # 10000 <__heap_size-0x1ffe0000>
80002c98:	00072683          	lw	a3,0(a4) # 80008000 <__stack_top+0xc0018000>
80002c9c:	0047a803          	lw	a6,4(a5)
80002ca0:	00472503          	lw	a0,4(a4)
80002ca4:	04d61063          	bne	a2,a3,80002ce4 <main+0x94>
80002ca8:	00258593          	addi	a1,a1,2
80002cac:	80058693          	addi	a3,a1,-2048
80002cb0:	00a81a63          	bne	a6,a0,80002cc4 <main+0x74>
80002cb4:	00878793          	addi	a5,a5,8
80002cb8:	00870713          	addi	a4,a4,8
80002cbc:	fc069ce3          	bnez	a3,80002c94 <main+0x44>
80002cc0:	00000593          	li	a1,0
80002cc4:	8000c537          	lui	a0,0x8000c
80002cc8:	00050513          	mv	a0,a0
80002ccc:	a51fd0ef          	jal	ra,8000071c <printf>
80002cd0:	00c12083          	lw	ra,12(sp)
80002cd4:	00812403          	lw	s0,8(sp)
80002cd8:	00000513          	li	a0,0
80002cdc:	01010113          	addi	sp,sp,16
80002ce0:	00008067          	ret
80002ce4:	00158593          	addi	a1,a1,1
80002ce8:	fddff06f          	j	80002cc4 <main+0x74>
